---
triple:          'arm64-apple-darwin'
binary-path:     'bin/minesweeper'
relocations:
  - { offsetInCU: 0xD6D9, offset: 0xD6D9, size: 0x8, addend: 0x0, symName: __ZNSt3__16chronogtB8ue170006IxNS_5ratioILl1ELl1EEExS3_EEbRKNS0_8durationIT_T0_EERKNS4_IT1_T2_EE, symObjAddr: 0xAC00, symBinAddr: 0x10000E520, symSize: 0x30 }
  - { offsetInCU: 0xD73A, offset: 0xD73A, size: 0x8, addend: 0x0, symName: __ZNSt3__16chronoltB8ue170006IxNS_5ratioILl1ELl1EEEeS3_EEbRKNS0_8durationIT_T0_EERKNS4_IT1_T2_EE, symObjAddr: 0xAC6C, symBinAddr: 0x10000E58C, symSize: 0x34 }
  - { offsetInCU: 0xD79B, offset: 0xD79B, size: 0x8, addend: 0x0, symName: __ZNSt3__16chrono13duration_castB8ue170006INS0_8durationIxNS_5ratioILl1ELl1000000000EEEEExNS3_ILl1ELl1EEEEENS_9enable_ifIXsr13__is_durationIT_EE5valueES8_E4typeERKNS2_IT0_T1_EE, symObjAddr: 0xACA0, symBinAddr: 0x10000E5C0, symSize: 0x30 }
  - { offsetInCU: 0xD7E2, offset: 0xD7E2, size: 0x8, addend: 0x0, symName: __ZNSt3__16chronoltB8ue170006IxNS_5ratioILl1ELl1000000000EEExNS2_ILl1ELl1EEEEEbRKNS0_8durationIT_T0_EERKNS5_IT1_T2_EE, symObjAddr: 0xACD0, symBinAddr: 0x10000E5F0, symSize: 0x34 }
  - { offsetInCU: 0xD843, offset: 0xD843, size: 0x8, addend: 0x0, symName: __ZNSt3__16chronoltB8ue170006IxNS_5ratioILl1ELl1EEExS3_EEbRKNS0_8durationIT_T0_EERKNS4_IT1_T2_EE, symObjAddr: 0xAD60, symBinAddr: 0x10000E680, symSize: 0x34 }
  - { offsetInCU: 0xD921, offset: 0xD921, size: 0x8, addend: 0x0, symName: __ZNSt3__16chrono13duration_castB8ue170006INS0_8durationIeNS_5ratioILl1ELl1EEEEExS4_EENS_9enable_ifIXsr13__is_durationIT_EE5valueES7_E4typeERKNS2_IT0_T1_EE, symObjAddr: 0xAF6C, symBinAddr: 0x10000E88C, symSize: 0x30 }
  - { offsetInCU: 0xEFE0, offset: 0xEFE0, size: 0x8, addend: 0x0, symName: __ZNSt3__124__put_character_sequenceB8ue170006IcNS_11char_traitsIcEEEERNS_13basic_ostreamIT_T0_EES7_PKS4_m, symObjAddr: 0x6408, symBinAddr: 0x100009D28, symSize: 0x1EC }
  - { offsetInCU: 0x145E1, offset: 0x145E1, size: 0x8, addend: 0x0, symName: __ZNSt3__122__make_exception_guardB8ue170006INS_6vectorIiNS_9allocatorIiEEE16__destroy_vectorEEENS_28__exception_guard_exceptionsIT_EES7_, symObjAddr: 0x934, symBinAddr: 0x100004254, symSize: 0x40 }
  - { offsetInCU: 0x14616, offset: 0x14616, size: 0x8, addend: 0x0, symName: __ZNSt3__119__allocate_at_leastB8ue170006INS_9allocatorIiEEEENS_19__allocation_resultINS_16allocator_traitsIT_E7pointerEEERS5_m, symObjAddr: 0xD28, symBinAddr: 0x100004648, symSize: 0x40 }
  - { offsetInCU: 0x14659, offset: 0x14659, size: 0x8, addend: 0x0, symName: __ZNSt3__13minB8ue170006ImEERKT_S3_S3_, symObjAddr: 0xE64, symBinAddr: 0x100004784, symSize: 0x2C }
  - { offsetInCU: 0x1489D, offset: 0x1489D, size: 0x8, addend: 0x0, symName: __ZNSt3__13minB8ue170006ImNS_6__lessIvvEEEERKT_S5_S5_T0_, symObjAddr: 0xEFC, symBinAddr: 0x10000481C, symSize: 0x54 }
  - { offsetInCU: 0x1493C, offset: 0x1493C, size: 0x8, addend: 0x0, symName: __ZNSt3__120__throw_length_errorB8ue170006EPKc, symObjAddr: 0xFD8, symBinAddr: 0x1000048F8, symSize: 0x64 }
  - { offsetInCU: 0x14966, offset: 0x14966, size: 0x8, addend: 0x0, symName: __ZNSt3__117__libcpp_allocateB8ue170006Emm, symObjAddr: 0x1148, symBinAddr: 0x100004A68, symSize: 0x28 }
  - { offsetInCU: 0x149A3, offset: 0x149A3, size: 0x8, addend: 0x0, symName: __ZNSt3__121__libcpp_operator_newB8ue170006IJmEEEPvDpT_, symObjAddr: 0x1170, symBinAddr: 0x100004A90, symSize: 0x24 }
  - { offsetInCU: 0x149DC, offset: 0x149DC, size: 0x8, addend: 0x0, symName: __ZNSt3__112__to_addressB8ue170006IiEEPT_S2_, symObjAddr: 0x128C, symBinAddr: 0x100004BAC, symSize: 0x14 }
  - { offsetInCU: 0x14A11, offset: 0x14A11, size: 0x8, addend: 0x0, symName: __ZNSt3__119__libcpp_deallocateB8ue170006EPvmm, symObjAddr: 0x1750, symBinAddr: 0x100005070, symSize: 0x30 }
  - { offsetInCU: 0x14A59, offset: 0x14A59, size: 0x8, addend: 0x0, symName: __ZNSt3__127__do_deallocate_handle_sizeB8ue170006IJEEEvPvmDpT_, symObjAddr: 0x1780, symBinAddr: 0x1000050A0, symSize: 0x28 }
  - { offsetInCU: 0x14A97, offset: 0x14A97, size: 0x8, addend: 0x0, symName: __ZNSt3__124__libcpp_operator_deleteB8ue170006IJPvEEEvDpT_, symObjAddr: 0x17A8, symBinAddr: 0x1000050C8, symSize: 0x24 }
  - { offsetInCU: 0x14ACC, offset: 0x14ACC, size: 0x8, addend: 0x0, symName: __ZNSt3__122__make_exception_guardB8ue170006INS_6vectorINS1_IiNS_9allocatorIiEEEENS2_IS4_EEE16__destroy_vectorEEENS_28__exception_guard_exceptionsIT_EES9_, symObjAddr: 0x18E4, symBinAddr: 0x100005204, symSize: 0x40 }
  - { offsetInCU: 0x14B01, offset: 0x14B01, size: 0x8, addend: 0x0, symName: __ZNSt3__119__allocate_at_leastB8ue170006INS_9allocatorINS_6vectorIiNS1_IiEEEEEEEENS_19__allocation_resultINS_16allocator_traitsIT_E7pointerEEERS8_m, symObjAddr: 0x1CE0, symBinAddr: 0x100005600, symSize: 0x40 }
  - { offsetInCU: 0x14B44, offset: 0x14B44, size: 0x8, addend: 0x0, symName: __ZNSt3__112__to_addressB8ue170006INS_6vectorIiNS_9allocatorIiEEEEEEPT_S6_, symObjAddr: 0x2028, symBinAddr: 0x100005948, symSize: 0x14 }
  - { offsetInCU: 0x14B79, offset: 0x14B79, size: 0x8, addend: 0x0, symName: __ZNSt3__130__uninitialized_allocator_copyB8ue170006INS_9allocatorIiEEPiS3_S3_EET2_RT_T0_T1_S4_, symObjAddr: 0x2468, symBinAddr: 0x100005D88, symSize: 0x80 }
  - { offsetInCU: 0x14C16, offset: 0x14C16, size: 0x8, addend: 0x0, symName: __ZNSt3__114__unwrap_rangeB8ue170006IPiS1_EENS_4pairIT0_S3_EET_S5_, symObjAddr: 0x24E8, symBinAddr: 0x100005E08, symSize: 0x60 }
  - { offsetInCU: 0x14C62, offset: 0x14C62, size: 0x8, addend: 0x0, symName: __ZNSt3__135__uninitialized_allocator_copy_implB8ue170006INS_9allocatorIiEEiiiLPv0EEEPT2_RT_PT0_S9_S5_, symObjAddr: 0x2548, symBinAddr: 0x100005E68, symSize: 0x38 }
  - { offsetInCU: 0x14CE3, offset: 0x14CE3, size: 0x8, addend: 0x0, symName: __ZNSt3__113__unwrap_iterB8ue170006IPiNS_18__unwrap_iter_implIS1_Lb1EEELi0EEEDTclsrT0_8__unwrapclsr3stdE7declvalIT_EEEES5_, symObjAddr: 0x2580, symBinAddr: 0x100005EA0, symSize: 0x24 }
  - { offsetInCU: 0x14D27, offset: 0x14D27, size: 0x8, addend: 0x0, symName: __ZNSt3__113__rewrap_iterB8ue170006IPiS1_NS_18__unwrap_iter_implIS1_Lb1EEEEET_S4_T0_, symObjAddr: 0x25A4, symBinAddr: 0x100005EC4, symSize: 0x3C }
  - { offsetInCU: 0x14D7C, offset: 0x14D7C, size: 0x8, addend: 0x0, symName: __ZNSt3__19make_pairB8ue170006IPiS1_EENS_4pairINS_18__unwrap_ref_decayIT_E4typeENS3_IT0_E4typeEEEOS4_OS7_, symObjAddr: 0x25E0, symBinAddr: 0x100005F00, symSize: 0x38 }
  - { offsetInCU: 0x14ECE, offset: 0x14ECE, size: 0x8, addend: 0x0, symName: __ZNSt3__14copyB8ue170006IPiS1_EET0_T_S3_S2_, symObjAddr: 0x2688, symBinAddr: 0x100005FA8, symSize: 0x40 }
  - { offsetInCU: 0x14F28, offset: 0x14F28, size: 0x8, addend: 0x0, symName: __ZNSt3__16__copyB8ue170006INS_17_ClassicAlgPolicyEPiS2_S2_EENS_4pairIT0_T2_EES4_T1_S5_, symObjAddr: 0x26C8, symBinAddr: 0x100005FE8, symSize: 0x44 }
  - { offsetInCU: 0x14F94, offset: 0x14F94, size: 0x8, addend: 0x0, symName: __ZNSt3__123__dispatch_copy_or_moveB8ue170006INS_17_ClassicAlgPolicyENS_11__copy_loopIS1_EENS_14__copy_trivialEPiS5_S5_EENS_4pairIT2_T4_EES7_T3_S8_, symObjAddr: 0x270C, symBinAddr: 0x10000602C, symSize: 0x44 }
  - { offsetInCU: 0x15012, offset: 0x15012, size: 0x8, addend: 0x0, symName: __ZNSt3__121__unwrap_and_dispatchB8ue170006INS_10__overloadINS_11__copy_loopINS_17_ClassicAlgPolicyEEENS_14__copy_trivialEEEPiS7_S7_Li0EEENS_4pairIT0_T2_EES9_T1_SA_, symObjAddr: 0x2750, symBinAddr: 0x100006070, symSize: 0xB4 }
  - { offsetInCU: 0x150E6, offset: 0x150E6, size: 0x8, addend: 0x0, symName: __ZNSt3__114__rewrap_rangeB8ue170006IPiS1_EET_S2_T0_, symObjAddr: 0x284C, symBinAddr: 0x10000616C, symSize: 0x2C }
  - { offsetInCU: 0x15132, offset: 0x15132, size: 0x8, addend: 0x0, symName: __ZNSt3__119__copy_trivial_implB8ue170006IiiEENS_4pairIPT_PT0_EES3_S3_S5_, symObjAddr: 0x2878, symBinAddr: 0x100006198, symSize: 0x80 }
  - { offsetInCU: 0x1519A, offset: 0x1519A, size: 0x8, addend: 0x0, symName: __ZNSt3__119__constexpr_memmoveB8ue170006IiiLi0EEEPT_S2_PT0_NS_15__element_countE, symObjAddr: 0x28F8, symBinAddr: 0x100006218, symSize: 0x64 }
  - { offsetInCU: 0x15208, offset: 0x15208, size: 0x8, addend: 0x0, symName: __ZNSt3__19make_pairB8ue170006IRPiS1_EENS_4pairINS_18__unwrap_ref_decayIT_E4typeENS4_IT0_E4typeEEEOS5_OS8_, symObjAddr: 0x295C, symBinAddr: 0x10000627C, symSize: 0x38 }
  - { offsetInCU: 0x152AF, offset: 0x152AF, size: 0x8, addend: 0x0, symName: __ZNSt3__111this_thread9sleep_forB8ue170006IxNS_5ratioILl1ELl1EEEEEvRKNS_6chrono8durationIT_T0_EE, symObjAddr: 0x3BC4, symBinAddr: 0x1000074E4, symSize: 0xBC }
  - { offsetInCU: 0x15330, offset: 0x15330, size: 0x8, addend: 0x0, symName: __ZNSt3__1neB8ue170006IPNS_12basic_stringIcNS_11char_traitsIcEENS_9allocatorIcEEEEEEbRKNS_11__wrap_iterIT_EESC_, symObjAddr: 0x4584, symBinAddr: 0x100007EA4, symSize: 0x34 }
  - { offsetInCU: 0x15373, offset: 0x15373, size: 0x8, addend: 0x0, symName: __ZNSt3__1lsB8ue170006INS_11char_traitsIcEEEERNS_13basic_ostreamIcT_EES6_PKc, symObjAddr: 0x45FC, symBinAddr: 0x100007F1C, symSize: 0x48 }
  - { offsetInCU: 0x153B9, offset: 0x153B9, size: 0x8, addend: 0x0, symName: __ZNSt3__1lsB8ue170006IcNS_11char_traitsIcEENS_9allocatorIcEEEERNS_13basic_ostreamIT_T0_EES9_RKNS_12basic_stringIS6_S7_T1_EE, symObjAddr: 0x4644, symBinAddr: 0x100007F64, symSize: 0x4C }
  - { offsetInCU: 0x15411, offset: 0x15411, size: 0x8, addend: 0x0, symName: __ZNSt3__118__constexpr_strlenB8ue170006EPKc, symObjAddr: 0x4AAC, symBinAddr: 0x1000083CC, symSize: 0x24 }
  - { offsetInCU: 0x1543D, offset: 0x1543D, size: 0x8, addend: 0x0, symName: __ZNSt3__122__make_exception_guardB8ue170006INS_6vectorINS_12basic_stringIcNS_11char_traitsIcEENS_9allocatorIcEEEENS5_IS7_EEE16__destroy_vectorEEENS_28__exception_guard_exceptionsIT_EESC_, symObjAddr: 0x4C2C, symBinAddr: 0x10000854C, symSize: 0x40 }
  - { offsetInCU: 0x15472, offset: 0x15472, size: 0x8, addend: 0x0, symName: __ZNSt3__119__allocate_at_leastB8ue170006INS_9allocatorINS_12basic_stringIcNS_11char_traitsIcEENS1_IcEEEEEEEENS_19__allocation_resultINS_16allocator_traitsIT_E7pointerEEERSA_m, symObjAddr: 0x503C, symBinAddr: 0x10000895C, symSize: 0x40 }
  - { offsetInCU: 0x154B5, offset: 0x154B5, size: 0x8, addend: 0x0, symName: __ZNSt3__112__to_addressB8ue170006INS_12basic_stringIcNS_11char_traitsIcEENS_9allocatorIcEEEEEEPT_S8_, symObjAddr: 0x5384, symBinAddr: 0x100008CA4, symSize: 0x14 }
  - { offsetInCU: 0x154EA, offset: 0x154EA, size: 0x8, addend: 0x0, symName: __ZNSt3__130__uninitialized_allocator_copyB8ue170006INS_9allocatorINS_12basic_stringIcNS_11char_traitsIcEENS1_IcEEEEEEPKS6_S9_PS6_EET2_RT_T0_T1_SB_, symObjAddr: 0x5434, symBinAddr: 0x100008D54, symSize: 0x80 }
  - { offsetInCU: 0x15587, offset: 0x15587, size: 0x8, addend: 0x0, symName: __ZNSt3__114__unwrap_rangeB8ue170006IPKNS_12basic_stringIcNS_11char_traitsIcEENS_9allocatorIcEEEES8_EENS_4pairIT0_SA_EET_SC_, symObjAddr: 0x552C, symBinAddr: 0x100008E4C, symSize: 0x60 }
  - { offsetInCU: 0x155D3, offset: 0x155D3, size: 0x8, addend: 0x0, symName: __ZNSt3__135__uninitialized_allocator_copy_implB8ue170006INS_9allocatorINS_12basic_stringIcNS_11char_traitsIcEENS1_IcEEEEEEPKS6_S9_PS6_EET2_RT_T0_T1_SB_, symObjAddr: 0x558C, symBinAddr: 0x100008EAC, symSize: 0xF4 }
  - { offsetInCU: 0x15671, offset: 0x15671, size: 0x8, addend: 0x0, symName: __ZNSt3__113__unwrap_iterB8ue170006IPNS_12basic_stringIcNS_11char_traitsIcEENS_9allocatorIcEEEENS_18__unwrap_iter_implIS7_Lb1EEELi0EEEDTclsrT0_8__unwrapclsr3stdE7declvalIT_EEEESB_, symObjAddr: 0x5680, symBinAddr: 0x100008FA0, symSize: 0x24 }
  - { offsetInCU: 0x156B5, offset: 0x156B5, size: 0x8, addend: 0x0, symName: __ZNSt3__113__rewrap_iterB8ue170006IPNS_12basic_stringIcNS_11char_traitsIcEENS_9allocatorIcEEEES7_NS_18__unwrap_iter_implIS7_Lb1EEEEET_SA_T0_, symObjAddr: 0x56A4, symBinAddr: 0x100008FC4, symSize: 0x3C }
  - { offsetInCU: 0x1570A, offset: 0x1570A, size: 0x8, addend: 0x0, symName: __ZNSt3__19make_pairB8ue170006IPKNS_12basic_stringIcNS_11char_traitsIcEENS_9allocatorIcEEEES8_EENS_4pairINS_18__unwrap_ref_decayIT_E4typeENSA_IT0_E4typeEEEOSB_OSE_, symObjAddr: 0x56E0, symBinAddr: 0x100009000, symSize: 0x38 }
  - { offsetInCU: 0x15759, offset: 0x15759, size: 0x8, addend: 0x0, symName: __ZNSt3__113__unwrap_iterB8ue170006IPKNS_12basic_stringIcNS_11char_traitsIcEENS_9allocatorIcEEEENS_18__unwrap_iter_implIS8_Lb1EEELi0EEEDTclsrT0_8__unwrapclsr3stdE7declvalIT_EEEESC_, symObjAddr: 0x5718, symBinAddr: 0x100009038, symSize: 0x24 }
  - { offsetInCU: 0x158C4, offset: 0x158C4, size: 0x8, addend: 0x0, symName: __ZNSt3__112__to_addressB8ue170006IKNS_12basic_stringIcNS_11char_traitsIcEENS_9allocatorIcEEEEEEPT_S9_, symObjAddr: 0x57D0, symBinAddr: 0x1000090F0, symSize: 0x14 }
  - { offsetInCU: 0x158F9, offset: 0x158F9, size: 0x8, addend: 0x0, symName: __ZNSt3__122__make_exception_guardB8ue170006INS_29_AllocatorDestroyRangeReverseINS_9allocatorINS_12basic_stringIcNS_11char_traitsIcEENS2_IcEEEEEEPS7_EEEENS_28__exception_guard_exceptionsIT_EESC_, symObjAddr: 0x57E4, symBinAddr: 0x100009104, symSize: 0x4C }
  - { offsetInCU: 0x1592F, offset: 0x1592F, size: 0x8, addend: 0x0, symName: __ZNSt3__119__allocator_destroyB8ue170006INS_9allocatorINS_12basic_stringIcNS_11char_traitsIcEENS1_IcEEEEEENS_16reverse_iteratorIPS6_EESA_EEvRT_T0_T1_, symObjAddr: 0x5A74, symBinAddr: 0x100009394, symSize: 0x70 }
  - { offsetInCU: 0x15992, offset: 0x15992, size: 0x8, addend: 0x0, symName: __ZNSt3__1neB8ue170006IPNS_12basic_stringIcNS_11char_traitsIcEENS_9allocatorIcEEEES7_EEbRKNS_16reverse_iteratorIT_EERKNS8_IT0_EE, symObjAddr: 0x5B18, symBinAddr: 0x100009438, symSize: 0x48 }
  - { offsetInCU: 0x159DE, offset: 0x159DE, size: 0x8, addend: 0x0, symName: __ZNSt3__112__to_addressB8ue170006INS_16reverse_iteratorIPNS_12basic_stringIcNS_11char_traitsIcEENS_9allocatorIcEEEEEEvEEu7__decayIDTclsr19__to_address_helperIT_EE6__callclsr3stdE7declvalIRKSA_EEEEESC_, symObjAddr: 0x5B8C, symBinAddr: 0x1000094AC, symSize: 0x24 }
  - { offsetInCU: 0x15A90, offset: 0x15A90, size: 0x8, addend: 0x0, symName: __ZNSt3__1eqB8ue170006IPNS_12basic_stringIcNS_11char_traitsIcEENS_9allocatorIcEEEEEEbRKNS_11__wrap_iterIT_EESC_, symObjAddr: 0x6384, symBinAddr: 0x100009CA4, symSize: 0x48 }
  - { offsetInCU: 0x15AD3, offset: 0x15AD3, size: 0x8, addend: 0x0, symName: __ZNSt3__116__pad_and_outputB8ue170006IcNS_11char_traitsIcEEEENS_19ostreambuf_iteratorIT_T0_EES6_PKS4_S8_S8_RNS_8ios_baseES4_, symObjAddr: 0x6610, symBinAddr: 0x100009F30, symSize: 0x240 }
  - { offsetInCU: 0x15BA2, offset: 0x15BA2, size: 0x8, addend: 0x0, symName: __ZNSt3__112__to_addressB8ue170006IKcEEPT_S3_, symObjAddr: 0x6A80, symBinAddr: 0x10000A3A0, symSize: 0x14 }
  - { offsetInCU: 0x15C0A, offset: 0x15C0A, size: 0x8, addend: 0x0, symName: __ZNSt3__19use_facetB8ue170006INS_5ctypeIcEEEERKT_RKNS_6localeE, symObjAddr: 0x6D00, symBinAddr: 0x10000A620, symSize: 0x2C }
  - { offsetInCU: 0x160D7, offset: 0x160D7, size: 0x8, addend: 0x0, symName: __ZNSt3__112__to_addressB8ue170006IN2sf7TextureEEEPT_S4_, symObjAddr: 0x70A8, symBinAddr: 0x10000A9C8, symSize: 0x14 }
  - { offsetInCU: 0x1610C, offset: 0x1610C, size: 0x8, addend: 0x0, symName: __ZNSt3__13maxB8ue170006ImEERKT_S3_S3_, symObjAddr: 0x74AC, symBinAddr: 0x10000ADCC, symSize: 0x2C }
  - { offsetInCU: 0x1614F, offset: 0x1614F, size: 0x8, addend: 0x0, symName: __ZNSt3__13maxB8ue170006ImNS_6__lessIvvEEEERKT_S5_S5_T0_, symObjAddr: 0x75D4, symBinAddr: 0x10000AEF4, symSize: 0x54 }
  - { offsetInCU: 0x161A9, offset: 0x161A9, size: 0x8, addend: 0x0, symName: __ZNSt3__119__allocate_at_leastB8ue170006INS_9allocatorIN2sf7TextureEEEEENS_19__allocation_resultINS_16allocator_traitsIT_E7pointerEEERS7_m, symObjAddr: 0x7744, symBinAddr: 0x10000B064, symSize: 0x40 }
  - { offsetInCU: 0x161EC, offset: 0x161EC, size: 0x8, addend: 0x0, symName: __ZNSt3__142__uninitialized_allocator_move_if_noexceptB8ue170006INS_9allocatorIN2sf7TextureEEENS_16reverse_iteratorIPS3_EES7_S7_EET2_RT_T0_T1_S8_, symObjAddr: 0x79D0, symBinAddr: 0x10000B2F0, symSize: 0x12C }
  - { offsetInCU: 0x1628C, offset: 0x1628C, size: 0x8, addend: 0x0, symName: __ZNSt3__14swapB8ue170006IPN2sf7TextureEEENS_9enable_ifIXaasr21is_move_constructibleIT_EE5valuesr18is_move_assignableIS5_EE5valueEvE4typeERS5_S8_, symObjAddr: 0x7B48, symBinAddr: 0x10000B468, symSize: 0x3C }
  - { offsetInCU: 0x162DD, offset: 0x162DD, size: 0x8, addend: 0x0, symName: __ZNSt3__122__make_exception_guardB8ue170006INS_29_AllocatorDestroyRangeReverseINS_9allocatorIN2sf7TextureEEENS_16reverse_iteratorIPS4_EEEEEENS_28__exception_guard_exceptionsIT_EESB_, symObjAddr: 0x7C94, symBinAddr: 0x10000B5B4, symSize: 0x4C }
  - { offsetInCU: 0x16313, offset: 0x16313, size: 0x8, addend: 0x0, symName: __ZNSt3__1neB8ue170006IPN2sf7TextureES3_EEbRKNS_16reverse_iteratorIT_EERKNS4_IT0_EE, symObjAddr: 0x7D24, symBinAddr: 0x10000B644, symSize: 0x48 }
  - { offsetInCU: 0x1635F, offset: 0x1635F, size: 0x8, addend: 0x0, symName: __ZNSt3__112__to_addressB8ue170006INS_16reverse_iteratorIPN2sf7TextureEEEvEEu7__decayIDTclsr19__to_address_helperIT_EE6__callclsr3stdE7declvalIRKS6_EEEEES8_, symObjAddr: 0x7D6C, symBinAddr: 0x10000B68C, symSize: 0x24 }
  - { offsetInCU: 0x163BE, offset: 0x163BE, size: 0x8, addend: 0x0, symName: __ZNSt3__119__allocator_destroyB8ue170006INS_9allocatorIN2sf7TextureEEENS_16reverse_iteratorINS5_IPS3_EEEES8_EEvRT_T0_T1_, symObjAddr: 0x801C, symBinAddr: 0x10000B93C, symSize: 0x70 }
  - { offsetInCU: 0x16423, offset: 0x16423, size: 0x8, addend: 0x0, symName: __ZNSt3__1neB8ue170006INS_16reverse_iteratorIPN2sf7TextureEEES5_EEbRKNS1_IT_EERKNS1_IT0_EE, symObjAddr: 0x80C8, symBinAddr: 0x10000B9E8, symSize: 0x60 }
  - { offsetInCU: 0x1646F, offset: 0x1646F, size: 0x8, addend: 0x0, symName: __ZNSt3__112__to_addressB8ue170006INS_16reverse_iteratorINS1_IPN2sf7TextureEEEEEvEEu7__decayIDTclsr19__to_address_helperIT_EE6__callclsr3stdE7declvalIRKS7_EEEEES9_, symObjAddr: 0x8154, symBinAddr: 0x10000BA74, symSize: 0x24 }
  - { offsetInCU: 0x164CE, offset: 0x164CE, size: 0x8, addend: 0x0, symName: __ZNSt3__112__to_addressB8ue170006IN2sf6SpriteEEEPT_S4_, symObjAddr: 0x87BC, symBinAddr: 0x10000C0DC, symSize: 0x14 }
  - { offsetInCU: 0x16503, offset: 0x16503, size: 0x8, addend: 0x0, symName: __ZNSt3__119__allocate_at_leastB8ue170006INS_9allocatorIN2sf6SpriteEEEEENS_19__allocation_resultINS_16allocator_traitsIT_E7pointerEEERS7_m, symObjAddr: 0x8F5C, symBinAddr: 0x10000C87C, symSize: 0x40 }
  - { offsetInCU: 0x16546, offset: 0x16546, size: 0x8, addend: 0x0, symName: __ZNSt3__142__uninitialized_allocator_move_if_noexceptB8ue170006INS_9allocatorIN2sf6SpriteEEENS_16reverse_iteratorIPS3_EES7_S7_EET2_RT_T0_T1_S8_, symObjAddr: 0x91E8, symBinAddr: 0x10000CB08, symSize: 0x12C }
  - { offsetInCU: 0x165E6, offset: 0x165E6, size: 0x8, addend: 0x0, symName: __ZNSt3__14swapB8ue170006IPN2sf6SpriteEEENS_9enable_ifIXaasr21is_move_constructibleIT_EE5valuesr18is_move_assignableIS5_EE5valueEvE4typeERS5_S8_, symObjAddr: 0x9360, symBinAddr: 0x10000CC80, symSize: 0x3C }
  - { offsetInCU: 0x16637, offset: 0x16637, size: 0x8, addend: 0x0, symName: __ZNSt3__122__make_exception_guardB8ue170006INS_29_AllocatorDestroyRangeReverseINS_9allocatorIN2sf6SpriteEEENS_16reverse_iteratorIPS4_EEEEEENS_28__exception_guard_exceptionsIT_EESB_, symObjAddr: 0x94AC, symBinAddr: 0x10000CDCC, symSize: 0x4C }
  - { offsetInCU: 0x1666D, offset: 0x1666D, size: 0x8, addend: 0x0, symName: __ZNSt3__1neB8ue170006IPN2sf6SpriteES3_EEbRKNS_16reverse_iteratorIT_EERKNS4_IT0_EE, symObjAddr: 0x953C, symBinAddr: 0x10000CE5C, symSize: 0x48 }
  - { offsetInCU: 0x166B9, offset: 0x166B9, size: 0x8, addend: 0x0, symName: __ZNSt3__112__to_addressB8ue170006INS_16reverse_iteratorIPN2sf6SpriteEEEvEEu7__decayIDTclsr19__to_address_helperIT_EE6__callclsr3stdE7declvalIRKS6_EEEEES8_, symObjAddr: 0x95B8, symBinAddr: 0x10000CED8, symSize: 0x24 }
  - { offsetInCU: 0x16718, offset: 0x16718, size: 0x8, addend: 0x0, symName: __ZNSt3__119__allocator_destroyB8ue170006INS_9allocatorIN2sf6SpriteEEENS_16reverse_iteratorINS5_IPS3_EEEES8_EEvRT_T0_T1_, symObjAddr: 0x9954, symBinAddr: 0x10000D274, symSize: 0x70 }
  - { offsetInCU: 0x1677D, offset: 0x1677D, size: 0x8, addend: 0x0, symName: __ZNSt3__1neB8ue170006INS_16reverse_iteratorIPN2sf6SpriteEEES5_EEbRKNS1_IT_EERKNS1_IT0_EE, symObjAddr: 0x9A00, symBinAddr: 0x10000D320, symSize: 0x60 }
  - { offsetInCU: 0x167C9, offset: 0x167C9, size: 0x8, addend: 0x0, symName: __ZNSt3__112__to_addressB8ue170006INS_16reverse_iteratorINS1_IPN2sf6SpriteEEEEEvEEu7__decayIDTclsr19__to_address_helperIT_EE6__callclsr3stdE7declvalIRKS7_EEEEES9_, symObjAddr: 0x9A8C, symBinAddr: 0x10000D3AC, symSize: 0x24 }
  - { offsetInCU: 0x17015, offset: 0x17015, size: 0x8, addend: 0x0, symName: __ZSt28__throw_bad_array_new_lengthB8ue170006v, symObjAddr: 0x1114, symBinAddr: 0x100004A34, symSize: 0x34 }
  - { offsetInCU: 0x1C5E2, offset: 0x1C5E2, size: 0x8, addend: 0x0, symName: __ZNSt3__16vectorIN2sf7TextureENS_9allocatorIS2_EEE26__swap_out_circular_bufferERNS_14__split_bufferIS2_RS4_EE, symObjAddr: 0x72B4, symBinAddr: 0x10000ABD4, symSize: 0x110 }
  - { offsetInCU: 0x1C825, offset: 0x1C825, size: 0x8, addend: 0x0, symName: __ZNSt3__16vectorIN2sf6SpriteENS_9allocatorIS2_EEE26__swap_out_circular_bufferERNS_14__split_bufferIS2_RS4_EE, symObjAddr: 0x8B44, symBinAddr: 0x10000C464, symSize: 0x110 }
  - { offsetInCU: 0x1C8FC, offset: 0x1C8FC, size: 0x8, addend: 0x0, symName: __ZNKSt3__16chrono13__duration_ltINS0_8durationIxNS_5ratioILl1ELl1EEEEENS2_IeS4_EEEclB8ue170006ERKS5_RKS6_, symObjAddr: 0xAE64, symBinAddr: 0x10000E784, symSize: 0x6C }
  - { offsetInCU: 0x1C97C, offset: 0x1C97C, size: 0x8, addend: 0x0, symName: __ZNKSt3__16chrono15__duration_castINS0_8durationIxNS_5ratioILl1ELl1EEEEENS2_IxNS3_ILl1ELl1000000000EEEEENS3_ILl1000000000ELl1EEELb0ELb1EEclB8ue170006ERKS5_, symObjAddr: 0xB044, symBinAddr: 0x10000E964, symSize: 0x4C }
  - { offsetInCU: 0x1C9C6, offset: 0x1C9C6, size: 0x8, addend: 0x0, symName: __ZNKSt3__16chrono13__duration_ltINS0_8durationIxNS_5ratioILl1ELl1000000000EEEEENS2_IxNS3_ILl1ELl1EEEEEEclB8ue170006ERKS5_RKS7_, symObjAddr: 0xB0F4, symBinAddr: 0x10000EA14, symSize: 0x6C }
  - { offsetInCU: 0x1ED10, offset: 0x1ED10, size: 0x8, addend: 0x0, symName: _main, symObjAddr: 0x0, symBinAddr: 0x100003920, symSize: 0x5C }
  - { offsetInCU: 0x1EEE5, offset: 0x1EEE5, size: 0x8, addend: 0x0, symName: __ZN11MinesweeperC1Ev, symObjAddr: 0x5C, symBinAddr: 0x10000397C, symSize: 0x2C }
  - { offsetInCU: 0x1EF0F, offset: 0x1EF0F, size: 0x8, addend: 0x0, symName: __ZN11Minesweeper3runEv, symObjAddr: 0x88, symBinAddr: 0x1000039A8, symSize: 0x200 }
  - { offsetInCU: 0x1EF81, offset: 0x1EF81, size: 0x8, addend: 0x0, symName: __ZN11MinesweeperD1Ev, symObjAddr: 0x288, symBinAddr: 0x100003BA8, symSize: 0x2C }
  - { offsetInCU: 0x1EFAD, offset: 0x1EFAD, size: 0x8, addend: 0x0, symName: __ZN11MinesweeperC2Ev, symObjAddr: 0x2B4, symBinAddr: 0x100003BD4, symSize: 0x274 }
  - { offsetInCU: 0x1EFD7, offset: 0x1EFD7, size: 0x8, addend: 0x0, symName: __ZNSt3__16vectorIiNS_9allocatorIiEEEC1EmRKi, symObjAddr: 0x528, symBinAddr: 0x100003E48, symSize: 0x3C }
  - { offsetInCU: 0x1F021, offset: 0x1F021, size: 0x8, addend: 0x0, symName: __ZNSt3__16vectorINS0_IiNS_9allocatorIiEEEENS1_IS3_EEEC1EmRKS3_, symObjAddr: 0x564, symBinAddr: 0x100003E84, symSize: 0x3C }
  - { offsetInCU: 0x1F06B, offset: 0x1F06B, size: 0x8, addend: 0x0, symName: __ZNSt3__16vectorIiNS_9allocatorIiEEED1B8ue170006Ev, symObjAddr: 0x5A0, symBinAddr: 0x100003EC0, symSize: 0x2C }
  - { offsetInCU: 0x1F095, offset: 0x1F095, size: 0x8, addend: 0x0, symName: __ZNSt3__16vectorINS0_IiNS_9allocatorIiEEEENS1_IS3_EEEaSB8ue170006EOS5_, symObjAddr: 0x5CC, symBinAddr: 0x100003EEC, symSize: 0x34 }
  - { offsetInCU: 0x1F0CC, offset: 0x1F0CC, size: 0x8, addend: 0x0, symName: __ZNSt3__16vectorINS0_IiNS_9allocatorIiEEEENS1_IS3_EEED1B8ue170006Ev, symObjAddr: 0x600, symBinAddr: 0x100003F20, symSize: 0x2C }
  - { offsetInCU: 0x1F0F6, offset: 0x1F0F6, size: 0x8, addend: 0x0, symName: __ZN11Minesweeper13generateMinesEv, symObjAddr: 0x62C, symBinAddr: 0x100003F4C, symSize: 0x1F0 }
  - { offsetInCU: 0x1F19A, offset: 0x1F19A, size: 0x8, addend: 0x0, symName: __ZNSt3__16vectorIiNS_9allocatorIiEEEC2EmRKi, symObjAddr: 0x81C, symBinAddr: 0x10000413C, symSize: 0xDC }
  - { offsetInCU: 0x1F205, offset: 0x1F205, size: 0x8, addend: 0x0, symName: __ZNSt3__117__compressed_pairIPiNS_9allocatorIiEEEC1B8ue170006IDnNS_18__default_init_tagEEEOT_OT0_, symObjAddr: 0x8F8, symBinAddr: 0x100004218, symSize: 0x3C }
  - { offsetInCU: 0x1F25D, offset: 0x1F25D, size: 0x8, addend: 0x0, symName: __ZNSt3__16vectorIiNS_9allocatorIiEEE16__destroy_vectorC1B8ue170006ERS3_, symObjAddr: 0x974, symBinAddr: 0x100004294, symSize: 0x34 }
  - { offsetInCU: 0x1F296, offset: 0x1F296, size: 0x8, addend: 0x0, symName: __ZNSt3__16vectorIiNS_9allocatorIiEEE11__vallocateB8ue170006Em, symObjAddr: 0x9A8, symBinAddr: 0x1000042C8, symSize: 0xAC }
  - { offsetInCU: 0x1F2DA, offset: 0x1F2DA, size: 0x8, addend: 0x0, symName: __ZNSt3__16vectorIiNS_9allocatorIiEEE18__construct_at_endEmRKi, symObjAddr: 0xA54, symBinAddr: 0x100004374, symSize: 0xD0 }
  - { offsetInCU: 0x1F35B, offset: 0x1F35B, size: 0x8, addend: 0x0, symName: __ZNSt3__128__exception_guard_exceptionsINS_6vectorIiNS_9allocatorIiEEE16__destroy_vectorEE10__completeB8ue170006Ev, symObjAddr: 0xB24, symBinAddr: 0x100004444, symSize: 0x1C }
  - { offsetInCU: 0x1F381, offset: 0x1F381, size: 0x8, addend: 0x0, symName: __ZNSt3__128__exception_guard_exceptionsINS_6vectorIiNS_9allocatorIiEEE16__destroy_vectorEED1B8ue170006Ev, symObjAddr: 0xB40, symBinAddr: 0x100004460, symSize: 0x2C }
  - { offsetInCU: 0x1F3AB, offset: 0x1F3AB, size: 0x8, addend: 0x0, symName: __ZNSt3__117__compressed_pairIPiNS_9allocatorIiEEEC2B8ue170006IDnNS_18__default_init_tagEEEOT_OT0_, symObjAddr: 0xB6C, symBinAddr: 0x10000448C, symSize: 0x40 }
  - { offsetInCU: 0x1F403, offset: 0x1F403, size: 0x8, addend: 0x0, symName: __ZNSt3__122__compressed_pair_elemIPiLi0ELb0EEC2B8ue170006IDnvEEOT_, symObjAddr: 0xBAC, symBinAddr: 0x1000044CC, symSize: 0x1C }
  - { offsetInCU: 0x1F445, offset: 0x1F445, size: 0x8, addend: 0x0, symName: __ZNSt3__122__compressed_pair_elemINS_9allocatorIiEELi1ELb1EEC2B8ue170006ENS_18__default_init_tagE, symObjAddr: 0xBC8, symBinAddr: 0x1000044E8, symSize: 0x2C }
  - { offsetInCU: 0x1F47A, offset: 0x1F47A, size: 0x8, addend: 0x0, symName: __ZNSt3__19allocatorIiEC2B8ue170006Ev, symObjAddr: 0xBF4, symBinAddr: 0x100004514, symSize: 0x2C }
  - { offsetInCU: 0x1F4A4, offset: 0x1F4A4, size: 0x8, addend: 0x0, symName: __ZNSt3__116__non_trivial_ifILb1ENS_9allocatorIiEEEC2B8ue170006Ev, symObjAddr: 0xC20, symBinAddr: 0x100004540, symSize: 0x14 }
  - { offsetInCU: 0x1F4CE, offset: 0x1F4CE, size: 0x8, addend: 0x0, symName: __ZNSt3__128__exception_guard_exceptionsINS_6vectorIiNS_9allocatorIiEEE16__destroy_vectorEEC1B8ue170006ES5_, symObjAddr: 0xC34, symBinAddr: 0x100004554, symSize: 0x34 }
  - { offsetInCU: 0x1F506, offset: 0x1F506, size: 0x8, addend: 0x0, symName: __ZNSt3__128__exception_guard_exceptionsINS_6vectorIiNS_9allocatorIiEEE16__destroy_vectorEEC2B8ue170006ES5_, symObjAddr: 0xC68, symBinAddr: 0x100004588, symSize: 0x24 }
  - { offsetInCU: 0x1F53E, offset: 0x1F53E, size: 0x8, addend: 0x0, symName: __ZNSt3__16vectorIiNS_9allocatorIiEEE16__destroy_vectorC2B8ue170006ERS3_, symObjAddr: 0xC8C, symBinAddr: 0x1000045AC, symSize: 0x20 }
  - { offsetInCU: 0x1F577, offset: 0x1F577, size: 0x8, addend: 0x0, symName: __ZNKSt3__16vectorIiNS_9allocatorIiEEE8max_sizeEv, symObjAddr: 0xCAC, symBinAddr: 0x1000045CC, symSize: 0x60 }
  - { offsetInCU: 0x1F59F, offset: 0x1F59F, size: 0x8, addend: 0x0, symName: __ZNKSt3__16vectorIiNS_9allocatorIiEEE20__throw_length_errorB8ue170006Ev, symObjAddr: 0xD0C, symBinAddr: 0x10000462C, symSize: 0x1C }
  - { offsetInCU: 0x1F5C5, offset: 0x1F5C5, size: 0x8, addend: 0x0, symName: __ZNSt3__16vectorIiNS_9allocatorIiEEE7__allocB8ue170006Ev, symObjAddr: 0xD68, symBinAddr: 0x100004688, symSize: 0x28 }
  - { offsetInCU: 0x1F5EB, offset: 0x1F5EB, size: 0x8, addend: 0x0, symName: __ZNSt3__16vectorIiNS_9allocatorIiEEE9__end_capB8ue170006Ev, symObjAddr: 0xD90, symBinAddr: 0x1000046B0, symSize: 0x28 }
  - { offsetInCU: 0x1F611, offset: 0x1F611, size: 0x8, addend: 0x0, symName: __ZNKSt3__16vectorIiNS_9allocatorIiEEE14__annotate_newB8ue170006Em, symObjAddr: 0xDB8, symBinAddr: 0x1000046D8, symSize: 0xAC }
  - { offsetInCU: 0x1F650, offset: 0x1F650, size: 0x8, addend: 0x0, symName: __ZNSt3__116allocator_traitsINS_9allocatorIiEEE8max_sizeB8ue170006IS2_vEEmRKS2_, symObjAddr: 0xE90, symBinAddr: 0x1000047B0, symSize: 0x24 }
  - { offsetInCU: 0x1F67E, offset: 0x1F67E, size: 0x8, addend: 0x0, symName: __ZNKSt3__16vectorIiNS_9allocatorIiEEE7__allocB8ue170006Ev, symObjAddr: 0xEB4, symBinAddr: 0x1000047D4, symSize: 0x28 }
  - { offsetInCU: 0x1F6A4, offset: 0x1F6A4, size: 0x8, addend: 0x0, symName: __ZNSt3__114numeric_limitsIlE3maxB8ue170006Ev, symObjAddr: 0xEDC, symBinAddr: 0x1000047FC, symSize: 0x14 }
  - { offsetInCU: 0x1F6C3, offset: 0x1F6C3, size: 0x8, addend: 0x0, symName: __ZNKSt3__16__lessIvvEclB8ue170006ImmEEbRKT_RKT0_, symObjAddr: 0xF50, symBinAddr: 0x100004870, symSize: 0x34 }
  - { offsetInCU: 0x1F717, offset: 0x1F717, size: 0x8, addend: 0x0, symName: __ZNKSt3__19allocatorIiE8max_sizeB8ue170006Ev, symObjAddr: 0xF84, symBinAddr: 0x1000048A4, symSize: 0x14 }
  - { offsetInCU: 0x1F73D, offset: 0x1F73D, size: 0x8, addend: 0x0, symName: __ZNKSt3__117__compressed_pairIPiNS_9allocatorIiEEE6secondB8ue170006Ev, symObjAddr: 0xF98, symBinAddr: 0x1000048B8, symSize: 0x24 }
  - { offsetInCU: 0x1F763, offset: 0x1F763, size: 0x8, addend: 0x0, symName: __ZNKSt3__122__compressed_pair_elemINS_9allocatorIiEELi1ELb1EE5__getB8ue170006Ev, symObjAddr: 0xFBC, symBinAddr: 0x1000048DC, symSize: 0x14 }
  - { offsetInCU: 0x1F789, offset: 0x1F789, size: 0x8, addend: 0x0, symName: __ZNSt3__123__libcpp_numeric_limitsIlLb1EE3maxB8ue170006Ev, symObjAddr: 0xFD0, symBinAddr: 0x1000048F0, symSize: 0x8 }
  - { offsetInCU: 0x1F79D, offset: 0x1F79D, size: 0x8, addend: 0x0, symName: __ZNSt12length_errorC1B8ue170006EPKc, symObjAddr: 0x103C, symBinAddr: 0x10000495C, symSize: 0x34 }
  - { offsetInCU: 0x1F7D5, offset: 0x1F7D5, size: 0x8, addend: 0x0, symName: __ZNSt12length_errorC2B8ue170006EPKc, symObjAddr: 0x1070, symBinAddr: 0x100004990, symSize: 0x4C }
  - { offsetInCU: 0x1F80D, offset: 0x1F80D, size: 0x8, addend: 0x0, symName: __ZNSt3__19allocatorIiE8allocateB8ue170006Em, symObjAddr: 0x10BC, symBinAddr: 0x1000049DC, symSize: 0x58 }
  - { offsetInCU: 0x1F841, offset: 0x1F841, size: 0x8, addend: 0x0, symName: __ZNSt3__117__compressed_pairIPiNS_9allocatorIiEEE6secondB8ue170006Ev, symObjAddr: 0x1194, symBinAddr: 0x100004AB4, symSize: 0x24 }
  - { offsetInCU: 0x1F867, offset: 0x1F867, size: 0x8, addend: 0x0, symName: __ZNSt3__122__compressed_pair_elemINS_9allocatorIiEELi1ELb1EE5__getB8ue170006Ev, symObjAddr: 0x11B8, symBinAddr: 0x100004AD8, symSize: 0x14 }
  - { offsetInCU: 0x1F88D, offset: 0x1F88D, size: 0x8, addend: 0x0, symName: __ZNSt3__117__compressed_pairIPiNS_9allocatorIiEEE5firstB8ue170006Ev, symObjAddr: 0x11CC, symBinAddr: 0x100004AEC, symSize: 0x24 }
  - { offsetInCU: 0x1F8B3, offset: 0x1F8B3, size: 0x8, addend: 0x0, symName: __ZNSt3__122__compressed_pair_elemIPiLi0ELb0EE5__getB8ue170006Ev, symObjAddr: 0x11F0, symBinAddr: 0x100004B10, symSize: 0x14 }
  - { offsetInCU: 0x1F8D9, offset: 0x1F8D9, size: 0x8, addend: 0x0, symName: __ZNKSt3__16vectorIiNS_9allocatorIiEEE31__annotate_contiguous_containerB8ue170006EPKvS5_S5_S5_, symObjAddr: 0x1204, symBinAddr: 0x100004B24, symSize: 0x20 }
  - { offsetInCU: 0x1F92B, offset: 0x1F92B, size: 0x8, addend: 0x0, symName: __ZNKSt3__16vectorIiNS_9allocatorIiEEE4dataB8ue170006Ev, symObjAddr: 0x1224, symBinAddr: 0x100004B44, symSize: 0x28 }
  - { offsetInCU: 0x1F951, offset: 0x1F951, size: 0x8, addend: 0x0, symName: __ZNKSt3__16vectorIiNS_9allocatorIiEEE8capacityB8ue170006Ev, symObjAddr: 0x124C, symBinAddr: 0x100004B6C, symSize: 0x40 }
  - { offsetInCU: 0x1F977, offset: 0x1F977, size: 0x8, addend: 0x0, symName: __ZNKSt3__16vectorIiNS_9allocatorIiEEE9__end_capB8ue170006Ev, symObjAddr: 0x12A0, symBinAddr: 0x100004BC0, symSize: 0x28 }
  - { offsetInCU: 0x1F99D, offset: 0x1F99D, size: 0x8, addend: 0x0, symName: __ZNKSt3__117__compressed_pairIPiNS_9allocatorIiEEE5firstB8ue170006Ev, symObjAddr: 0x12C8, symBinAddr: 0x100004BE8, symSize: 0x24 }
  - { offsetInCU: 0x1F9C3, offset: 0x1F9C3, size: 0x8, addend: 0x0, symName: __ZNKSt3__122__compressed_pair_elemIPiLi0ELb0EE5__getB8ue170006Ev, symObjAddr: 0x12EC, symBinAddr: 0x100004C0C, symSize: 0x14 }
  - { offsetInCU: 0x1FA03, offset: 0x1FA03, size: 0x8, addend: 0x0, symName: __ZNSt3__16vectorIiNS_9allocatorIiEEE21_ConstructTransactionC1B8ue170006ERS3_m, symObjAddr: 0x1300, symBinAddr: 0x100004C20, symSize: 0x3C }
  - { offsetInCU: 0x1FA4B, offset: 0x1FA4B, size: 0x8, addend: 0x0, symName: __ZNSt3__116allocator_traitsINS_9allocatorIiEEE9constructB8ue170006IiJRKiEvEEvRS2_PT_DpOT0_, symObjAddr: 0x133C, symBinAddr: 0x100004C5C, symSize: 0x34 }
  - { offsetInCU: 0x1FAA2, offset: 0x1FAA2, size: 0x8, addend: 0x0, symName: __ZNSt3__16vectorIiNS_9allocatorIiEEE21_ConstructTransactionD1B8ue170006Ev, symObjAddr: 0x1370, symBinAddr: 0x100004C90, symSize: 0x2C }
  - { offsetInCU: 0x1FACC, offset: 0x1FACC, size: 0x8, addend: 0x0, symName: __ZNSt3__16vectorIiNS_9allocatorIiEEE21_ConstructTransactionC2B8ue170006ERS3_m, symObjAddr: 0x139C, symBinAddr: 0x100004CBC, symSize: 0x44 }
  - { offsetInCU: 0x1FB14, offset: 0x1FB14, size: 0x8, addend: 0x0, symName: __ZNSt3__19allocatorIiE9constructB8ue170006IiJRKiEEEvPT_DpOT0_, symObjAddr: 0x13E0, symBinAddr: 0x100004D00, symSize: 0x28 }
  - { offsetInCU: 0x1FB6A, offset: 0x1FB6A, size: 0x8, addend: 0x0, symName: __ZNSt3__16vectorIiNS_9allocatorIiEEE21_ConstructTransactionD2B8ue170006Ev, symObjAddr: 0x1408, symBinAddr: 0x100004D28, symSize: 0x20 }
  - { offsetInCU: 0x1FB94, offset: 0x1FB94, size: 0x8, addend: 0x0, symName: __ZNSt3__128__exception_guard_exceptionsINS_6vectorIiNS_9allocatorIiEEE16__destroy_vectorEED2B8ue170006Ev, symObjAddr: 0x1428, symBinAddr: 0x100004D48, symSize: 0x50 }
  - { offsetInCU: 0x1FBBE, offset: 0x1FBBE, size: 0x8, addend: 0x0, symName: __ZNSt3__16vectorIiNS_9allocatorIiEEE16__destroy_vectorclB8ue170006Ev, symObjAddr: 0x1478, symBinAddr: 0x100004D98, symSize: 0x90 }
  - { offsetInCU: 0x1FBE4, offset: 0x1FBE4, size: 0x8, addend: 0x0, symName: __ZNSt3__16vectorIiNS_9allocatorIiEEE7__clearB8ue170006Ev, symObjAddr: 0x1508, symBinAddr: 0x100004E28, symSize: 0x28 }
  - { offsetInCU: 0x1FC0A, offset: 0x1FC0A, size: 0x8, addend: 0x0, symName: __ZNKSt3__16vectorIiNS_9allocatorIiEEE17__annotate_deleteB8ue170006Ev, symObjAddr: 0x1530, symBinAddr: 0x100004E50, symSize: 0xB8 }
  - { offsetInCU: 0x1FC30, offset: 0x1FC30, size: 0x8, addend: 0x0, symName: __ZNSt3__116allocator_traitsINS_9allocatorIiEEE10deallocateB8ue170006ERS2_Pim, symObjAddr: 0x15E8, symBinAddr: 0x100004F08, symSize: 0x34 }
  - { offsetInCU: 0x1FC72, offset: 0x1FC72, size: 0x8, addend: 0x0, symName: __ZNSt3__16vectorIiNS_9allocatorIiEEE22__base_destruct_at_endB8ue170006EPi, symObjAddr: 0x161C, symBinAddr: 0x100004F3C, symSize: 0x8C }
  - { offsetInCU: 0x1FCB6, offset: 0x1FCB6, size: 0x8, addend: 0x0, symName: __ZNSt3__116allocator_traitsINS_9allocatorIiEEE7destroyB8ue170006IivEEvRS2_PT_, symObjAddr: 0x16A8, symBinAddr: 0x100004FC8, symSize: 0x2C }
  - { offsetInCU: 0x1FCF3, offset: 0x1FCF3, size: 0x8, addend: 0x0, symName: __ZNSt3__19allocatorIiE7destroyB8ue170006EPi, symObjAddr: 0x16D4, symBinAddr: 0x100004FF4, symSize: 0x14 }
  - { offsetInCU: 0x1FD27, offset: 0x1FD27, size: 0x8, addend: 0x0, symName: __ZNKSt3__16vectorIiNS_9allocatorIiEEE4sizeB8ue170006Ev, symObjAddr: 0x16E8, symBinAddr: 0x100005008, symSize: 0x28 }
  - { offsetInCU: 0x1FD4D, offset: 0x1FD4D, size: 0x8, addend: 0x0, symName: __ZNSt3__19allocatorIiE10deallocateB8ue170006EPim, symObjAddr: 0x1710, symBinAddr: 0x100005030, symSize: 0x40 }
  - { offsetInCU: 0x1FD8F, offset: 0x1FD8F, size: 0x8, addend: 0x0, symName: __ZNSt3__16vectorINS0_IiNS_9allocatorIiEEEENS1_IS3_EEEC2EmRKS3_, symObjAddr: 0x17CC, symBinAddr: 0x1000050EC, symSize: 0xDC }
  - { offsetInCU: 0x1FDEE, offset: 0x1FDEE, size: 0x8, addend: 0x0, symName: __ZNSt3__117__compressed_pairIPNS_6vectorIiNS_9allocatorIiEEEENS2_IS4_EEEC1B8ue170006IDnNS_18__default_init_tagEEEOT_OT0_, symObjAddr: 0x18A8, symBinAddr: 0x1000051C8, symSize: 0x3C }
  - { offsetInCU: 0x1FE46, offset: 0x1FE46, size: 0x8, addend: 0x0, symName: __ZNSt3__16vectorINS0_IiNS_9allocatorIiEEEENS1_IS3_EEE16__destroy_vectorC1B8ue170006ERS5_, symObjAddr: 0x1924, symBinAddr: 0x100005244, symSize: 0x34 }
  - { offsetInCU: 0x1FE7F, offset: 0x1FE7F, size: 0x8, addend: 0x0, symName: __ZNSt3__16vectorINS0_IiNS_9allocatorIiEEEENS1_IS3_EEE11__vallocateB8ue170006Em, symObjAddr: 0x1958, symBinAddr: 0x100005278, symSize: 0xB4 }
  - { offsetInCU: 0x1FEC3, offset: 0x1FEC3, size: 0x8, addend: 0x0, symName: __ZNSt3__16vectorINS0_IiNS_9allocatorIiEEEENS1_IS3_EEE18__construct_at_endEmRKS3_, symObjAddr: 0x1A0C, symBinAddr: 0x10000532C, symSize: 0xD0 }
  - { offsetInCU: 0x1FF44, offset: 0x1FF44, size: 0x8, addend: 0x0, symName: __ZNSt3__128__exception_guard_exceptionsINS_6vectorINS1_IiNS_9allocatorIiEEEENS2_IS4_EEE16__destroy_vectorEE10__completeB8ue170006Ev, symObjAddr: 0x1ADC, symBinAddr: 0x1000053FC, symSize: 0x1C }
  - { offsetInCU: 0x1FF6A, offset: 0x1FF6A, size: 0x8, addend: 0x0, symName: __ZNSt3__128__exception_guard_exceptionsINS_6vectorINS1_IiNS_9allocatorIiEEEENS2_IS4_EEE16__destroy_vectorEED1B8ue170006Ev, symObjAddr: 0x1AF8, symBinAddr: 0x100005418, symSize: 0x2C }
  - { offsetInCU: 0x1FF94, offset: 0x1FF94, size: 0x8, addend: 0x0, symName: __ZNSt3__117__compressed_pairIPNS_6vectorIiNS_9allocatorIiEEEENS2_IS4_EEEC2B8ue170006IDnNS_18__default_init_tagEEEOT_OT0_, symObjAddr: 0x1B24, symBinAddr: 0x100005444, symSize: 0x40 }
  - { offsetInCU: 0x1FFEC, offset: 0x1FFEC, size: 0x8, addend: 0x0, symName: __ZNSt3__122__compressed_pair_elemIPNS_6vectorIiNS_9allocatorIiEEEELi0ELb0EEC2B8ue170006IDnvEEOT_, symObjAddr: 0x1B64, symBinAddr: 0x100005484, symSize: 0x1C }
  - { offsetInCU: 0x2002E, offset: 0x2002E, size: 0x8, addend: 0x0, symName: __ZNSt3__122__compressed_pair_elemINS_9allocatorINS_6vectorIiNS1_IiEEEEEELi1ELb1EEC2B8ue170006ENS_18__default_init_tagE, symObjAddr: 0x1B80, symBinAddr: 0x1000054A0, symSize: 0x2C }
  - { offsetInCU: 0x20063, offset: 0x20063, size: 0x8, addend: 0x0, symName: __ZNSt3__19allocatorINS_6vectorIiNS0_IiEEEEEC2B8ue170006Ev, symObjAddr: 0x1BAC, symBinAddr: 0x1000054CC, symSize: 0x2C }
  - { offsetInCU: 0x2008D, offset: 0x2008D, size: 0x8, addend: 0x0, symName: __ZNSt3__116__non_trivial_ifILb1ENS_9allocatorINS_6vectorIiNS1_IiEEEEEEEC2B8ue170006Ev, symObjAddr: 0x1BD8, symBinAddr: 0x1000054F8, symSize: 0x14 }
  - { offsetInCU: 0x200B7, offset: 0x200B7, size: 0x8, addend: 0x0, symName: __ZNSt3__128__exception_guard_exceptionsINS_6vectorINS1_IiNS_9allocatorIiEEEENS2_IS4_EEE16__destroy_vectorEEC1B8ue170006ES7_, symObjAddr: 0x1BEC, symBinAddr: 0x10000550C, symSize: 0x34 }
  - { offsetInCU: 0x200EF, offset: 0x200EF, size: 0x8, addend: 0x0, symName: __ZNSt3__128__exception_guard_exceptionsINS_6vectorINS1_IiNS_9allocatorIiEEEENS2_IS4_EEE16__destroy_vectorEEC2B8ue170006ES7_, symObjAddr: 0x1C20, symBinAddr: 0x100005540, symSize: 0x24 }
  - { offsetInCU: 0x20127, offset: 0x20127, size: 0x8, addend: 0x0, symName: __ZNSt3__16vectorINS0_IiNS_9allocatorIiEEEENS1_IS3_EEE16__destroy_vectorC2B8ue170006ERS5_, symObjAddr: 0x1C44, symBinAddr: 0x100005564, symSize: 0x20 }
  - { offsetInCU: 0x20160, offset: 0x20160, size: 0x8, addend: 0x0, symName: __ZNKSt3__16vectorINS0_IiNS_9allocatorIiEEEENS1_IS3_EEE8max_sizeEv, symObjAddr: 0x1C64, symBinAddr: 0x100005584, symSize: 0x60 }
  - { offsetInCU: 0x20188, offset: 0x20188, size: 0x8, addend: 0x0, symName: __ZNKSt3__16vectorINS0_IiNS_9allocatorIiEEEENS1_IS3_EEE20__throw_length_errorB8ue170006Ev, symObjAddr: 0x1CC4, symBinAddr: 0x1000055E4, symSize: 0x1C }
  - { offsetInCU: 0x201AE, offset: 0x201AE, size: 0x8, addend: 0x0, symName: __ZNSt3__16vectorINS0_IiNS_9allocatorIiEEEENS1_IS3_EEE7__allocB8ue170006Ev, symObjAddr: 0x1D20, symBinAddr: 0x100005640, symSize: 0x28 }
  - { offsetInCU: 0x201D4, offset: 0x201D4, size: 0x8, addend: 0x0, symName: __ZNSt3__16vectorINS0_IiNS_9allocatorIiEEEENS1_IS3_EEE9__end_capB8ue170006Ev, symObjAddr: 0x1D48, symBinAddr: 0x100005668, symSize: 0x28 }
  - { offsetInCU: 0x201FA, offset: 0x201FA, size: 0x8, addend: 0x0, symName: __ZNKSt3__16vectorINS0_IiNS_9allocatorIiEEEENS1_IS3_EEE14__annotate_newB8ue170006Em, symObjAddr: 0x1D70, symBinAddr: 0x100005690, symSize: 0xC8 }
  - { offsetInCU: 0x20239, offset: 0x20239, size: 0x8, addend: 0x0, symName: __ZNSt3__116allocator_traitsINS_9allocatorINS_6vectorIiNS1_IiEEEEEEE8max_sizeB8ue170006IS5_vEEmRKS5_, symObjAddr: 0x1E38, symBinAddr: 0x100005758, symSize: 0x24 }
  - { offsetInCU: 0x20267, offset: 0x20267, size: 0x8, addend: 0x0, symName: __ZNKSt3__16vectorINS0_IiNS_9allocatorIiEEEENS1_IS3_EEE7__allocB8ue170006Ev, symObjAddr: 0x1E5C, symBinAddr: 0x10000577C, symSize: 0x28 }
  - { offsetInCU: 0x2028D, offset: 0x2028D, size: 0x8, addend: 0x0, symName: __ZNKSt3__19allocatorINS_6vectorIiNS0_IiEEEEE8max_sizeB8ue170006Ev, symObjAddr: 0x1E84, symBinAddr: 0x1000057A4, symSize: 0x18 }
  - { offsetInCU: 0x202B3, offset: 0x202B3, size: 0x8, addend: 0x0, symName: __ZNKSt3__117__compressed_pairIPNS_6vectorIiNS_9allocatorIiEEEENS2_IS4_EEE6secondB8ue170006Ev, symObjAddr: 0x1E9C, symBinAddr: 0x1000057BC, symSize: 0x24 }
  - { offsetInCU: 0x202D9, offset: 0x202D9, size: 0x8, addend: 0x0, symName: __ZNKSt3__122__compressed_pair_elemINS_9allocatorINS_6vectorIiNS1_IiEEEEEELi1ELb1EE5__getB8ue170006Ev, symObjAddr: 0x1EC0, symBinAddr: 0x1000057E0, symSize: 0x14 }
  - { offsetInCU: 0x202FF, offset: 0x202FF, size: 0x8, addend: 0x0, symName: __ZNSt3__19allocatorINS_6vectorIiNS0_IiEEEEE8allocateB8ue170006Em, symObjAddr: 0x1ED4, symBinAddr: 0x1000057F4, symSize: 0x5C }
  - { offsetInCU: 0x20333, offset: 0x20333, size: 0x8, addend: 0x0, symName: __ZNSt3__117__compressed_pairIPNS_6vectorIiNS_9allocatorIiEEEENS2_IS4_EEE6secondB8ue170006Ev, symObjAddr: 0x1F30, symBinAddr: 0x100005850, symSize: 0x24 }
  - { offsetInCU: 0x20359, offset: 0x20359, size: 0x8, addend: 0x0, symName: __ZNSt3__122__compressed_pair_elemINS_9allocatorINS_6vectorIiNS1_IiEEEEEELi1ELb1EE5__getB8ue170006Ev, symObjAddr: 0x1F54, symBinAddr: 0x100005874, symSize: 0x14 }
  - { offsetInCU: 0x2037F, offset: 0x2037F, size: 0x8, addend: 0x0, symName: __ZNSt3__117__compressed_pairIPNS_6vectorIiNS_9allocatorIiEEEENS2_IS4_EEE5firstB8ue170006Ev, symObjAddr: 0x1F68, symBinAddr: 0x100005888, symSize: 0x24 }
  - { offsetInCU: 0x203A5, offset: 0x203A5, size: 0x8, addend: 0x0, symName: __ZNSt3__122__compressed_pair_elemIPNS_6vectorIiNS_9allocatorIiEEEELi0ELb0EE5__getB8ue170006Ev, symObjAddr: 0x1F8C, symBinAddr: 0x1000058AC, symSize: 0x14 }
  - { offsetInCU: 0x203CB, offset: 0x203CB, size: 0x8, addend: 0x0, symName: __ZNKSt3__16vectorINS0_IiNS_9allocatorIiEEEENS1_IS3_EEE31__annotate_contiguous_containerB8ue170006EPKvS7_S7_S7_, symObjAddr: 0x1FA0, symBinAddr: 0x1000058C0, symSize: 0x20 }
  - { offsetInCU: 0x2041D, offset: 0x2041D, size: 0x8, addend: 0x0, symName: __ZNKSt3__16vectorINS0_IiNS_9allocatorIiEEEENS1_IS3_EEE4dataB8ue170006Ev, symObjAddr: 0x1FC0, symBinAddr: 0x1000058E0, symSize: 0x28 }
  - { offsetInCU: 0x20443, offset: 0x20443, size: 0x8, addend: 0x0, symName: __ZNKSt3__16vectorINS0_IiNS_9allocatorIiEEEENS1_IS3_EEE8capacityB8ue170006Ev, symObjAddr: 0x1FE8, symBinAddr: 0x100005908, symSize: 0x40 }
  - { offsetInCU: 0x20469, offset: 0x20469, size: 0x8, addend: 0x0, symName: __ZNKSt3__16vectorINS0_IiNS_9allocatorIiEEEENS1_IS3_EEE9__end_capB8ue170006Ev, symObjAddr: 0x203C, symBinAddr: 0x10000595C, symSize: 0x28 }
  - { offsetInCU: 0x2048F, offset: 0x2048F, size: 0x8, addend: 0x0, symName: __ZNKSt3__117__compressed_pairIPNS_6vectorIiNS_9allocatorIiEEEENS2_IS4_EEE5firstB8ue170006Ev, symObjAddr: 0x2064, symBinAddr: 0x100005984, symSize: 0x24 }
  - { offsetInCU: 0x204B5, offset: 0x204B5, size: 0x8, addend: 0x0, symName: __ZNKSt3__122__compressed_pair_elemIPNS_6vectorIiNS_9allocatorIiEEEELi0ELb0EE5__getB8ue170006Ev, symObjAddr: 0x2088, symBinAddr: 0x1000059A8, symSize: 0x14 }
  - { offsetInCU: 0x204F5, offset: 0x204F5, size: 0x8, addend: 0x0, symName: __ZNSt3__16vectorINS0_IiNS_9allocatorIiEEEENS1_IS3_EEE21_ConstructTransactionC1B8ue170006ERS5_m, symObjAddr: 0x209C, symBinAddr: 0x1000059BC, symSize: 0x3C }
  - { offsetInCU: 0x2053D, offset: 0x2053D, size: 0x8, addend: 0x0, symName: __ZNSt3__116allocator_traitsINS_9allocatorINS_6vectorIiNS1_IiEEEEEEE9constructB8ue170006IS4_JRKS4_EvEEvRS5_PT_DpOT0_, symObjAddr: 0x20D8, symBinAddr: 0x1000059F8, symSize: 0x34 }
  - { offsetInCU: 0x20594, offset: 0x20594, size: 0x8, addend: 0x0, symName: __ZNSt3__16vectorINS0_IiNS_9allocatorIiEEEENS1_IS3_EEE21_ConstructTransactionD1B8ue170006Ev, symObjAddr: 0x210C, symBinAddr: 0x100005A2C, symSize: 0x2C }
  - { offsetInCU: 0x205BE, offset: 0x205BE, size: 0x8, addend: 0x0, symName: __ZNSt3__16vectorINS0_IiNS_9allocatorIiEEEENS1_IS3_EEE21_ConstructTransactionC2B8ue170006ERS5_m, symObjAddr: 0x2138, symBinAddr: 0x100005A58, symSize: 0x4C }
  - { offsetInCU: 0x20606, offset: 0x20606, size: 0x8, addend: 0x0, symName: __ZNSt3__19allocatorINS_6vectorIiNS0_IiEEEEE9constructB8ue170006IS3_JRKS3_EEEvPT_DpOT0_, symObjAddr: 0x2184, symBinAddr: 0x100005AA4, symSize: 0x30 }
  - { offsetInCU: 0x2065C, offset: 0x2065C, size: 0x8, addend: 0x0, symName: __ZNSt3__16vectorIiNS_9allocatorIiEEEC1ERKS3_, symObjAddr: 0x21B4, symBinAddr: 0x100005AD4, symSize: 0x34 }
  - { offsetInCU: 0x20697, offset: 0x20697, size: 0x8, addend: 0x0, symName: __ZNSt3__16vectorIiNS_9allocatorIiEEEC2ERKS3_, symObjAddr: 0x21E8, symBinAddr: 0x100005B08, symSize: 0x94 }
  - { offsetInCU: 0x206D2, offset: 0x206D2, size: 0x8, addend: 0x0, symName: __ZNSt3__116allocator_traitsINS_9allocatorIiEEE37select_on_container_copy_constructionB8ue170006IS2_vvEES2_RKS2_, symObjAddr: 0x227C, symBinAddr: 0x100005B9C, symSize: 0x10 }
  - { offsetInCU: 0x20707, offset: 0x20707, size: 0x8, addend: 0x0, symName: __ZNSt3__117__compressed_pairIPiNS_9allocatorIiEEEC1B8ue170006IDnS3_EEOT_OT0_, symObjAddr: 0x228C, symBinAddr: 0x100005BAC, symSize: 0x3C }
  - { offsetInCU: 0x2075F, offset: 0x2075F, size: 0x8, addend: 0x0, symName: __ZNSt3__16vectorIiNS_9allocatorIiEEE16__init_with_sizeB8ue170006IPiS5_EEvT_T0_m, symObjAddr: 0x22C8, symBinAddr: 0x100005BE8, symSize: 0xB8 }
  - { offsetInCU: 0x207D3, offset: 0x207D3, size: 0x8, addend: 0x0, symName: __ZNSt3__117__compressed_pairIPiNS_9allocatorIiEEEC2B8ue170006IDnS3_EEOT_OT0_, symObjAddr: 0x2380, symBinAddr: 0x100005CA0, symSize: 0x44 }
  - { offsetInCU: 0x2082B, offset: 0x2082B, size: 0x8, addend: 0x0, symName: __ZNSt3__122__compressed_pair_elemINS_9allocatorIiEELi1ELb1EEC2B8ue170006IS2_vEEOT_, symObjAddr: 0x23C4, symBinAddr: 0x100005CE4, symSize: 0x18 }
  - { offsetInCU: 0x2086D, offset: 0x2086D, size: 0x8, addend: 0x0, symName: __ZNSt3__16vectorIiNS_9allocatorIiEEE18__construct_at_endIPiS5_EEvT_T0_m, symObjAddr: 0x23DC, symBinAddr: 0x100005CFC, symSize: 0x8C }
  - { offsetInCU: 0x20904, offset: 0x20904, size: 0x8, addend: 0x0, symName: __ZNSt3__14pairIPiS1_EC1B8ue170006IS1_S1_LPv0EEEOT_OT0_, symObjAddr: 0x2618, symBinAddr: 0x100005F38, symSize: 0x3C }
  - { offsetInCU: 0x20962, offset: 0x20962, size: 0x8, addend: 0x0, symName: __ZNSt3__14pairIPiS1_EC2B8ue170006IS1_S1_LPv0EEEOT_OT0_, symObjAddr: 0x2654, symBinAddr: 0x100005F74, symSize: 0x34 }
  - { offsetInCU: 0x209CB, offset: 0x209CB, size: 0x8, addend: 0x0, symName: __ZNKSt3__114__copy_trivialclB8ue170006IiiLi0EEENS_4pairIPT_PT0_EES4_S4_S6_, symObjAddr: 0x2804, symBinAddr: 0x100006124, symSize: 0x48 }
  - { offsetInCU: 0x20A33, offset: 0x20A33, size: 0x8, addend: 0x0, symName: __ZNSt3__14pairIPiS1_EC1B8ue170006IRS1_S1_LPv0EEEOT_OT0_, symObjAddr: 0x2994, symBinAddr: 0x1000062B4, symSize: 0x3C }
  - { offsetInCU: 0x20A91, offset: 0x20A91, size: 0x8, addend: 0x0, symName: __ZNSt3__14pairIPiS1_EC2B8ue170006IRS1_S1_LPv0EEEOT_OT0_, symObjAddr: 0x29D0, symBinAddr: 0x1000062F0, symSize: 0x34 }
  - { offsetInCU: 0x20AEF, offset: 0x20AEF, size: 0x8, addend: 0x0, symName: __ZNSt3__118__unwrap_iter_implIPiLb1EE8__unwrapB8ue170006ES1_, symObjAddr: 0x2A04, symBinAddr: 0x100006324, symSize: 0x24 }
  - { offsetInCU: 0x20B12, offset: 0x20B12, size: 0x8, addend: 0x0, symName: __ZNSt3__118__unwrap_iter_implIPiLb1EE8__rewrapB8ue170006ES1_S1_, symObjAddr: 0x2A28, symBinAddr: 0x100006348, symSize: 0x50 }
  - { offsetInCU: 0x20B43, offset: 0x20B43, size: 0x8, addend: 0x0, symName: __ZNSt3__16vectorINS0_IiNS_9allocatorIiEEEENS1_IS3_EEE21_ConstructTransactionD2B8ue170006Ev, symObjAddr: 0x2A78, symBinAddr: 0x100006398, symSize: 0x20 }
  - { offsetInCU: 0x20B6D, offset: 0x20B6D, size: 0x8, addend: 0x0, symName: __ZNSt3__128__exception_guard_exceptionsINS_6vectorINS1_IiNS_9allocatorIiEEEENS2_IS4_EEE16__destroy_vectorEED2B8ue170006Ev, symObjAddr: 0x2A98, symBinAddr: 0x1000063B8, symSize: 0x50 }
  - { offsetInCU: 0x20B97, offset: 0x20B97, size: 0x8, addend: 0x0, symName: __ZNSt3__16vectorINS0_IiNS_9allocatorIiEEEENS1_IS3_EEE16__destroy_vectorclB8ue170006Ev, symObjAddr: 0x2AE8, symBinAddr: 0x100006408, symSize: 0x90 }
  - { offsetInCU: 0x20BBD, offset: 0x20BBD, size: 0x8, addend: 0x0, symName: __ZNSt3__16vectorINS0_IiNS_9allocatorIiEEEENS1_IS3_EEE7__clearB8ue170006Ev, symObjAddr: 0x2B78, symBinAddr: 0x100006498, symSize: 0x28 }
  - { offsetInCU: 0x20BE3, offset: 0x20BE3, size: 0x8, addend: 0x0, symName: __ZNKSt3__16vectorINS0_IiNS_9allocatorIiEEEENS1_IS3_EEE17__annotate_deleteB8ue170006Ev, symObjAddr: 0x2BA0, symBinAddr: 0x1000064C0, symSize: 0xD4 }
  - { offsetInCU: 0x20C09, offset: 0x20C09, size: 0x8, addend: 0x0, symName: __ZNSt3__116allocator_traitsINS_9allocatorINS_6vectorIiNS1_IiEEEEEEE10deallocateB8ue170006ERS5_PS4_m, symObjAddr: 0x2C74, symBinAddr: 0x100006594, symSize: 0x34 }
  - { offsetInCU: 0x20C4B, offset: 0x20C4B, size: 0x8, addend: 0x0, symName: __ZNSt3__16vectorINS0_IiNS_9allocatorIiEEEENS1_IS3_EEE22__base_destruct_at_endB8ue170006EPS3_, symObjAddr: 0x2CA8, symBinAddr: 0x1000065C8, symSize: 0x8C }
  - { offsetInCU: 0x20C8F, offset: 0x20C8F, size: 0x8, addend: 0x0, symName: __ZNSt3__116allocator_traitsINS_9allocatorINS_6vectorIiNS1_IiEEEEEEE7destroyB8ue170006IS4_vEEvRS5_PT_, symObjAddr: 0x2D34, symBinAddr: 0x100006654, symSize: 0x2C }
  - { offsetInCU: 0x20CCC, offset: 0x20CCC, size: 0x8, addend: 0x0, symName: __ZNSt3__19allocatorINS_6vectorIiNS0_IiEEEEE7destroyB8ue170006EPS3_, symObjAddr: 0x2D60, symBinAddr: 0x100006680, symSize: 0x28 }
  - { offsetInCU: 0x20D00, offset: 0x20D00, size: 0x8, addend: 0x0, symName: __ZNKSt3__16vectorINS0_IiNS_9allocatorIiEEEENS1_IS3_EEE4sizeB8ue170006Ev, symObjAddr: 0x2D88, symBinAddr: 0x1000066A8, symSize: 0x28 }
  - { offsetInCU: 0x20D26, offset: 0x20D26, size: 0x8, addend: 0x0, symName: __ZNSt3__19allocatorINS_6vectorIiNS0_IiEEEEE10deallocateB8ue170006EPS3_m, symObjAddr: 0x2DB0, symBinAddr: 0x1000066D0, symSize: 0x44 }
  - { offsetInCU: 0x20D68, offset: 0x20D68, size: 0x8, addend: 0x0, symName: __ZNSt3__16vectorIiNS_9allocatorIiEEED2B8ue170006Ev, symObjAddr: 0x2DF4, symBinAddr: 0x100006714, symSize: 0x40 }
  - { offsetInCU: 0x20D92, offset: 0x20D92, size: 0x8, addend: 0x0, symName: __ZNSt3__16vectorINS0_IiNS_9allocatorIiEEEENS1_IS3_EEE13__move_assignERS5_NS_17integral_constantIbLb1EEE, symObjAddr: 0x2E34, symBinAddr: 0x100006754, symSize: 0x94 }
  - { offsetInCU: 0x20DD4, offset: 0x20DD4, size: 0x8, addend: 0x0, symName: __ZNSt3__16vectorINS0_IiNS_9allocatorIiEEEENS1_IS3_EEE13__vdeallocateEv, symObjAddr: 0x2EC8, symBinAddr: 0x1000067E8, symSize: 0x94 }
  - { offsetInCU: 0x20DFC, offset: 0x20DFC, size: 0x8, addend: 0x0, symName: __ZNSt3__16vectorINS0_IiNS_9allocatorIiEEEENS1_IS3_EEE19__move_assign_allocB8ue170006ERS5_, symObjAddr: 0x2F5C, symBinAddr: 0x10000687C, symSize: 0x2C }
  - { offsetInCU: 0x20E31, offset: 0x20E31, size: 0x8, addend: 0x0, symName: __ZNSt3__16vectorINS0_IiNS_9allocatorIiEEEENS1_IS3_EEE5clearB8ue170006Ev, symObjAddr: 0x2F88, symBinAddr: 0x1000068A8, symSize: 0x44 }
  - { offsetInCU: 0x20E66, offset: 0x20E66, size: 0x8, addend: 0x0, symName: __ZNKSt3__16vectorINS0_IiNS_9allocatorIiEEEENS1_IS3_EEE17__annotate_shrinkB8ue170006Em, symObjAddr: 0x2FCC, symBinAddr: 0x1000068EC, symSize: 0xD0 }
  - { offsetInCU: 0x20E9B, offset: 0x20E9B, size: 0x8, addend: 0x0, symName: __ZNSt3__16vectorINS0_IiNS_9allocatorIiEEEENS1_IS3_EEE19__move_assign_allocB8ue170006ERS5_NS_17integral_constantIbLb1EEE, symObjAddr: 0x309C, symBinAddr: 0x1000069BC, symSize: 0x38 }
  - { offsetInCU: 0x20EDB, offset: 0x20EDB, size: 0x8, addend: 0x0, symName: __ZNSt3__16vectorINS0_IiNS_9allocatorIiEEEENS1_IS3_EEED2B8ue170006Ev, symObjAddr: 0x30D4, symBinAddr: 0x1000069F4, symSize: 0x40 }
  - { offsetInCU: 0x20F05, offset: 0x20F05, size: 0x8, addend: 0x0, symName: __ZNSt3__16vectorINS0_IiNS_9allocatorIiEEEENS1_IS3_EEEixB8ue170006Em, symObjAddr: 0x3114, symBinAddr: 0x100006A34, symSize: 0x2C }
  - { offsetInCU: 0x20F3C, offset: 0x20F3C, size: 0x8, addend: 0x0, symName: __ZNSt3__16vectorIiNS_9allocatorIiEEEixB8ue170006Em, symObjAddr: 0x3140, symBinAddr: 0x100006A60, symSize: 0x24 }
  - { offsetInCU: 0x20F73, offset: 0x20F73, size: 0x8, addend: 0x0, symName: __ZN11Minesweeper22countNeighbouringMinesEii, symObjAddr: 0x3164, symBinAddr: 0x100006A84, symSize: 0x158 }
  - { offsetInCU: 0x21025, offset: 0x21025, size: 0x8, addend: 0x0, symName: __ZN11Minesweeper7inBoardEii, symObjAddr: 0x32BC, symBinAddr: 0x100006BDC, symSize: 0xA0 }
  - { offsetInCU: 0x211D0, offset: 0x211D0, size: 0x8, addend: 0x0, symName: __ZN14MinesweeperGUIC1Eiiiii, symObjAddr: 0x335C, symBinAddr: 0x100006C7C, symSize: 0x54 }
  - { offsetInCU: 0x21240, offset: 0x21240, size: 0x8, addend: 0x0, symName: __ZN14MinesweeperGUI12displayBoardEiRNSt3__16vectorINS1_IiNS0_9allocatorIiEEEENS2_IS4_EEEES7_, symObjAddr: 0x33B0, symBinAddr: 0x100006CD0, symSize: 0x294 }
  - { offsetInCU: 0x212F2, offset: 0x212F2, size: 0x8, addend: 0x0, symName: __ZN14MinesweeperGUI12windowIsOpenEv, symObjAddr: 0x3644, symBinAddr: 0x100006F64, symSize: 0x2C }
  - { offsetInCU: 0x21318, offset: 0x21318, size: 0x8, addend: 0x0, symName: __ZN14MinesweeperGUI20takeInteractiveInputERiS0_Rb, symObjAddr: 0x3670, symBinAddr: 0x100006F90, symSize: 0x114 }
  - { offsetInCU: 0x213A0, offset: 0x213A0, size: 0x8, addend: 0x0, symName: __ZN11Minesweeper9playInputERiS0_Rb, symObjAddr: 0x3784, symBinAddr: 0x1000070A4, symSize: 0x298 }
  - { offsetInCU: 0x21410, offset: 0x21410, size: 0x8, addend: 0x0, symName: __ZN11Minesweeper13gameIsCorrectEv, symObjAddr: 0x3A1C, symBinAddr: 0x10000733C, symSize: 0x1A8 }
  - { offsetInCU: 0x21474, offset: 0x21474, size: 0x8, addend: 0x0, symName: __ZNSt3__16chrono8durationIxNS_5ratioILl1ELl1EEEEC1B8ue170006IiEERKT_PNS_9enable_ifIXaasr14is_convertibleIS8_xEE5valueooL_ZNS_17integral_constantIbLb0EE5valueEEntsr23treat_as_floating_pointIS6_EE5valueEvE4typeE, symObjAddr: 0x3C80, symBinAddr: 0x1000075A0, symSize: 0x3C }
  - { offsetInCU: 0x214C0, offset: 0x214C0, size: 0x8, addend: 0x0, symName: __ZN14MinesweeperGUI11closeWindowEv, symObjAddr: 0x3CBC, symBinAddr: 0x1000075DC, symSize: 0x28 }
  - { offsetInCU: 0x214E6, offset: 0x214E6, size: 0x8, addend: 0x0, symName: __ZN14MinesweeperGUID1Ev, symObjAddr: 0x3CE4, symBinAddr: 0x100007604, symSize: 0x2C }
  - { offsetInCU: 0x21512, offset: 0x21512, size: 0x8, addend: 0x0, symName: __ZN14MinesweeperGUIC2Eiiiii, symObjAddr: 0x3D10, symBinAddr: 0x100007630, symSize: 0x74C }
  - { offsetInCU: 0x2164D, offset: 0x2164D, size: 0x8, addend: 0x0, symName: __ZNSt3__112basic_stringIcNS_11char_traitsIcEENS_9allocatorIcEEEC1B8ue170006ILi0EEEPKc, symObjAddr: 0x445C, symBinAddr: 0x100007D7C, symSize: 0x34 }
  - { offsetInCU: 0x2168C, offset: 0x2168C, size: 0x8, addend: 0x0, symName: __ZNSt3__16vectorINS_12basic_stringIcNS_11char_traitsIcEENS_9allocatorIcEEEENS4_IS6_EEEC1B8ue170006ESt16initializer_listIS6_E, symObjAddr: 0x4490, symBinAddr: 0x100007DB0, symSize: 0x3C }
  - { offsetInCU: 0x216C7, offset: 0x216C7, size: 0x8, addend: 0x0, symName: __ZNSt3__16vectorIN2sf7TextureENS_9allocatorIS2_EEEC1B8ue170006Ev, symObjAddr: 0x44CC, symBinAddr: 0x100007DEC, symSize: 0x2C }
  - { offsetInCU: 0x216F1, offset: 0x216F1, size: 0x8, addend: 0x0, symName: __ZNSt3__16vectorIN2sf6SpriteENS_9allocatorIS2_EEEC1B8ue170006Ev, symObjAddr: 0x44F8, symBinAddr: 0x100007E18, symSize: 0x2C }
  - { offsetInCU: 0x2171B, offset: 0x2171B, size: 0x8, addend: 0x0, symName: __ZNSt3__16vectorINS_12basic_stringIcNS_11char_traitsIcEENS_9allocatorIcEEEENS4_IS6_EEE5beginB8ue170006Ev, symObjAddr: 0x4524, symBinAddr: 0x100007E44, symSize: 0x30 }
  - { offsetInCU: 0x21743, offset: 0x21743, size: 0x8, addend: 0x0, symName: __ZNSt3__16vectorINS_12basic_stringIcNS_11char_traitsIcEENS_9allocatorIcEEEENS4_IS6_EEE3endB8ue170006Ev, symObjAddr: 0x4554, symBinAddr: 0x100007E74, symSize: 0x30 }
  - { offsetInCU: 0x2176B, offset: 0x2176B, size: 0x8, addend: 0x0, symName: __ZNKSt3__111__wrap_iterIPNS_12basic_stringIcNS_11char_traitsIcEENS_9allocatorIcEEEEEdeB8ue170006Ev, symObjAddr: 0x45B8, symBinAddr: 0x100007ED8, symSize: 0x18 }
  - { offsetInCU: 0x21791, offset: 0x21791, size: 0x8, addend: 0x0, symName: __ZN2sf4RectIiEC1Ev, symObjAddr: 0x45D0, symBinAddr: 0x100007EF0, symSize: 0x2C }
  - { offsetInCU: 0x217BD, offset: 0x217BD, size: 0x8, addend: 0x0, symName: __ZNSt3__16vectorIN2sf7TextureENS_9allocatorIS2_EEE9push_backB8ue170006ERKS2_, symObjAddr: 0x4690, symBinAddr: 0x100007FB0, symSize: 0x6C }
  - { offsetInCU: 0x217F4, offset: 0x217F4, size: 0x8, addend: 0x0, symName: __ZNSt3__111__wrap_iterIPNS_12basic_stringIcNS_11char_traitsIcEENS_9allocatorIcEEEEEppB8ue170006Ev, symObjAddr: 0x46FC, symBinAddr: 0x10000801C, symSize: 0x20 }
  - { offsetInCU: 0x2181A, offset: 0x2181A, size: 0x8, addend: 0x0, symName: __ZNKSt3__16vectorIN2sf7TextureENS_9allocatorIS2_EEE4sizeB8ue170006Ev, symObjAddr: 0x471C, symBinAddr: 0x10000803C, symSize: 0x28 }
  - { offsetInCU: 0x21840, offset: 0x21840, size: 0x8, addend: 0x0, symName: __ZNSt3__16vectorIN2sf7TextureENS_9allocatorIS2_EEEixB8ue170006Em, symObjAddr: 0x4744, symBinAddr: 0x100008064, symSize: 0x2C }
  - { offsetInCU: 0x21877, offset: 0x21877, size: 0x8, addend: 0x0, symName: __ZNSt3__16vectorIN2sf6SpriteENS_9allocatorIS2_EEE9push_backB8ue170006ERKS2_, symObjAddr: 0x4770, symBinAddr: 0x100008090, symSize: 0x6C }
  - { offsetInCU: 0x218AE, offset: 0x218AE, size: 0x8, addend: 0x0, symName: __ZN2sf6SpriteD1Ev, symObjAddr: 0x47DC, symBinAddr: 0x1000080FC, symSize: 0x2C }
  - { offsetInCU: 0x218DA, offset: 0x218DA, size: 0x8, addend: 0x0, symName: __ZN2sf15ContextSettingsC1Ejjjjjjb, symObjAddr: 0x4808, symBinAddr: 0x100008128, symSize: 0x70 }
  - { offsetInCU: 0x21966, offset: 0x21966, size: 0x8, addend: 0x0, symName: __ZN2sf6StringD1Ev, symObjAddr: 0x4878, symBinAddr: 0x100008198, symSize: 0x2C }
  - { offsetInCU: 0x21992, offset: 0x21992, size: 0x8, addend: 0x0, symName: __ZNSt3__16vectorIN2sf6SpriteENS_9allocatorIS2_EEED1B8ue170006Ev, symObjAddr: 0x48A4, symBinAddr: 0x1000081C4, symSize: 0x2C }
  - { offsetInCU: 0x219BC, offset: 0x219BC, size: 0x8, addend: 0x0, symName: __ZNSt3__16vectorIN2sf7TextureENS_9allocatorIS2_EEED1B8ue170006Ev, symObjAddr: 0x48D0, symBinAddr: 0x1000081F0, symSize: 0x2C }
  - { offsetInCU: 0x219E6, offset: 0x219E6, size: 0x8, addend: 0x0, symName: __ZNSt3__16vectorINS_12basic_stringIcNS_11char_traitsIcEENS_9allocatorIcEEEENS4_IS6_EEED1B8ue170006Ev, symObjAddr: 0x48FC, symBinAddr: 0x10000821C, symSize: 0x2C }
  - { offsetInCU: 0x21A10, offset: 0x21A10, size: 0x8, addend: 0x0, symName: __ZNSt3__112basic_stringIcNS_11char_traitsIcEENS_9allocatorIcEEEC2B8ue170006ILi0EEEPKc, symObjAddr: 0x4928, symBinAddr: 0x100008248, symSize: 0x58 }
  - { offsetInCU: 0x21A4F, offset: 0x21A4F, size: 0x8, addend: 0x0, symName: __ZNSt3__117__compressed_pairINS_12basic_stringIcNS_11char_traitsIcEENS_9allocatorIcEEE5__repES5_EC1B8ue170006INS_18__default_init_tagESA_EEOT_OT0_, symObjAddr: 0x4980, symBinAddr: 0x1000082A0, symSize: 0x3C }
  - { offsetInCU: 0x21AA7, offset: 0x21AA7, size: 0x8, addend: 0x0, symName: __ZNSt3__111char_traitsIcE6lengthB8ue170006EPKc, symObjAddr: 0x49BC, symBinAddr: 0x1000082DC, symSize: 0x34 }
  - { offsetInCU: 0x21ACA, offset: 0x21ACA, size: 0x8, addend: 0x0, symName: __ZNSt3__117__compressed_pairINS_12basic_stringIcNS_11char_traitsIcEENS_9allocatorIcEEE5__repES5_EC2B8ue170006INS_18__default_init_tagESA_EEOT_OT0_, symObjAddr: 0x49F0, symBinAddr: 0x100008310, symSize: 0x3C }
  - { offsetInCU: 0x21B22, offset: 0x21B22, size: 0x8, addend: 0x0, symName: __ZNSt3__122__compressed_pair_elemINS_12basic_stringIcNS_11char_traitsIcEENS_9allocatorIcEEE5__repELi0ELb0EEC2B8ue170006ENS_18__default_init_tagE, symObjAddr: 0x4A2C, symBinAddr: 0x10000834C, symSize: 0x14 }
  - { offsetInCU: 0x21B57, offset: 0x21B57, size: 0x8, addend: 0x0, symName: __ZNSt3__122__compressed_pair_elemINS_9allocatorIcEELi1ELb1EEC2B8ue170006ENS_18__default_init_tagE, symObjAddr: 0x4A40, symBinAddr: 0x100008360, symSize: 0x2C }
  - { offsetInCU: 0x21B8C, offset: 0x21B8C, size: 0x8, addend: 0x0, symName: __ZNSt3__19allocatorIcEC2B8ue170006Ev, symObjAddr: 0x4A6C, symBinAddr: 0x10000838C, symSize: 0x2C }
  - { offsetInCU: 0x21BB6, offset: 0x21BB6, size: 0x8, addend: 0x0, symName: __ZNSt3__116__non_trivial_ifILb1ENS_9allocatorIcEEEC2B8ue170006Ev, symObjAddr: 0x4A98, symBinAddr: 0x1000083B8, symSize: 0x14 }
  - { offsetInCU: 0x21BE0, offset: 0x21BE0, size: 0x8, addend: 0x0, symName: __ZNSt3__16vectorINS_12basic_stringIcNS_11char_traitsIcEENS_9allocatorIcEEEENS4_IS6_EEEC2B8ue170006ESt16initializer_listIS6_E, symObjAddr: 0x4AD0, symBinAddr: 0x1000083F0, symSize: 0x120 }
  - { offsetInCU: 0x21C30, offset: 0x21C30, size: 0x8, addend: 0x0, symName: __ZNSt3__117__compressed_pairIPNS_12basic_stringIcNS_11char_traitsIcEENS_9allocatorIcEEEENS4_IS6_EEEC1B8ue170006IDnNS_18__default_init_tagEEEOT_OT0_, symObjAddr: 0x4BF0, symBinAddr: 0x100008510, symSize: 0x3C }
  - { offsetInCU: 0x21C88, offset: 0x21C88, size: 0x8, addend: 0x0, symName: __ZNSt3__16vectorINS_12basic_stringIcNS_11char_traitsIcEENS_9allocatorIcEEEENS4_IS6_EEE16__destroy_vectorC1B8ue170006ERS8_, symObjAddr: 0x4C6C, symBinAddr: 0x10000858C, symSize: 0x34 }
  - { offsetInCU: 0x21CC1, offset: 0x21CC1, size: 0x8, addend: 0x0, symName: __ZNKSt16initializer_listINSt3__112basic_stringIcNS0_11char_traitsIcEENS0_9allocatorIcEEEEE4sizeB8ue170006Ev, symObjAddr: 0x4CA0, symBinAddr: 0x1000085C0, symSize: 0x18 }
  - { offsetInCU: 0x21CE7, offset: 0x21CE7, size: 0x8, addend: 0x0, symName: __ZNSt3__16vectorINS_12basic_stringIcNS_11char_traitsIcEENS_9allocatorIcEEEENS4_IS6_EEE11__vallocateB8ue170006Em, symObjAddr: 0x4CB8, symBinAddr: 0x1000085D8, symSize: 0xB4 }
  - { offsetInCU: 0x21D2B, offset: 0x21D2B, size: 0x8, addend: 0x0, symName: __ZNSt3__16vectorINS_12basic_stringIcNS_11char_traitsIcEENS_9allocatorIcEEEENS4_IS6_EEE18__construct_at_endIPKS6_SB_EEvT_T0_m, symObjAddr: 0x4D6C, symBinAddr: 0x10000868C, symSize: 0x8C }
  - { offsetInCU: 0x21DA1, offset: 0x21DA1, size: 0x8, addend: 0x0, symName: __ZNKSt16initializer_listINSt3__112basic_stringIcNS0_11char_traitsIcEENS0_9allocatorIcEEEEE5beginB8ue170006Ev, symObjAddr: 0x4DF8, symBinAddr: 0x100008718, symSize: 0x18 }
  - { offsetInCU: 0x21DC7, offset: 0x21DC7, size: 0x8, addend: 0x0, symName: __ZNKSt16initializer_listINSt3__112basic_stringIcNS0_11char_traitsIcEENS0_9allocatorIcEEEEE3endB8ue170006Ev, symObjAddr: 0x4E10, symBinAddr: 0x100008730, symSize: 0x28 }
  - { offsetInCU: 0x21DED, offset: 0x21DED, size: 0x8, addend: 0x0, symName: __ZNSt3__128__exception_guard_exceptionsINS_6vectorINS_12basic_stringIcNS_11char_traitsIcEENS_9allocatorIcEEEENS5_IS7_EEE16__destroy_vectorEE10__completeB8ue170006Ev, symObjAddr: 0x4E38, symBinAddr: 0x100008758, symSize: 0x1C }
  - { offsetInCU: 0x21E13, offset: 0x21E13, size: 0x8, addend: 0x0, symName: __ZNSt3__128__exception_guard_exceptionsINS_6vectorINS_12basic_stringIcNS_11char_traitsIcEENS_9allocatorIcEEEENS5_IS7_EEE16__destroy_vectorEED1B8ue170006Ev, symObjAddr: 0x4E54, symBinAddr: 0x100008774, symSize: 0x2C }
  - { offsetInCU: 0x21E3D, offset: 0x21E3D, size: 0x8, addend: 0x0, symName: __ZNSt3__117__compressed_pairIPNS_12basic_stringIcNS_11char_traitsIcEENS_9allocatorIcEEEENS4_IS6_EEEC2B8ue170006IDnNS_18__default_init_tagEEEOT_OT0_, symObjAddr: 0x4E80, symBinAddr: 0x1000087A0, symSize: 0x40 }
  - { offsetInCU: 0x21E95, offset: 0x21E95, size: 0x8, addend: 0x0, symName: __ZNSt3__122__compressed_pair_elemIPNS_12basic_stringIcNS_11char_traitsIcEENS_9allocatorIcEEEELi0ELb0EEC2B8ue170006IDnvEEOT_, symObjAddr: 0x4EC0, symBinAddr: 0x1000087E0, symSize: 0x1C }
  - { offsetInCU: 0x21ED7, offset: 0x21ED7, size: 0x8, addend: 0x0, symName: __ZNSt3__122__compressed_pair_elemINS_9allocatorINS_12basic_stringIcNS_11char_traitsIcEENS1_IcEEEEEELi1ELb1EEC2B8ue170006ENS_18__default_init_tagE, symObjAddr: 0x4EDC, symBinAddr: 0x1000087FC, symSize: 0x2C }
  - { offsetInCU: 0x21F0C, offset: 0x21F0C, size: 0x8, addend: 0x0, symName: __ZNSt3__19allocatorINS_12basic_stringIcNS_11char_traitsIcEENS0_IcEEEEEC2B8ue170006Ev, symObjAddr: 0x4F08, symBinAddr: 0x100008828, symSize: 0x2C }
  - { offsetInCU: 0x21F36, offset: 0x21F36, size: 0x8, addend: 0x0, symName: __ZNSt3__116__non_trivial_ifILb1ENS_9allocatorINS_12basic_stringIcNS_11char_traitsIcEENS1_IcEEEEEEEC2B8ue170006Ev, symObjAddr: 0x4F34, symBinAddr: 0x100008854, symSize: 0x14 }
  - { offsetInCU: 0x21F60, offset: 0x21F60, size: 0x8, addend: 0x0, symName: __ZNSt3__128__exception_guard_exceptionsINS_6vectorINS_12basic_stringIcNS_11char_traitsIcEENS_9allocatorIcEEEENS5_IS7_EEE16__destroy_vectorEEC1B8ue170006ESA_, symObjAddr: 0x4F48, symBinAddr: 0x100008868, symSize: 0x34 }
  - { offsetInCU: 0x21F98, offset: 0x21F98, size: 0x8, addend: 0x0, symName: __ZNSt3__128__exception_guard_exceptionsINS_6vectorINS_12basic_stringIcNS_11char_traitsIcEENS_9allocatorIcEEEENS5_IS7_EEE16__destroy_vectorEEC2B8ue170006ESA_, symObjAddr: 0x4F7C, symBinAddr: 0x10000889C, symSize: 0x24 }
  - { offsetInCU: 0x21FD0, offset: 0x21FD0, size: 0x8, addend: 0x0, symName: __ZNSt3__16vectorINS_12basic_stringIcNS_11char_traitsIcEENS_9allocatorIcEEEENS4_IS6_EEE16__destroy_vectorC2B8ue170006ERS8_, symObjAddr: 0x4FA0, symBinAddr: 0x1000088C0, symSize: 0x20 }
  - { offsetInCU: 0x22009, offset: 0x22009, size: 0x8, addend: 0x0, symName: __ZNKSt3__16vectorINS_12basic_stringIcNS_11char_traitsIcEENS_9allocatorIcEEEENS4_IS6_EEE8max_sizeEv, symObjAddr: 0x4FC0, symBinAddr: 0x1000088E0, symSize: 0x60 }
  - { offsetInCU: 0x22031, offset: 0x22031, size: 0x8, addend: 0x0, symName: __ZNKSt3__16vectorINS_12basic_stringIcNS_11char_traitsIcEENS_9allocatorIcEEEENS4_IS6_EEE20__throw_length_errorB8ue170006Ev, symObjAddr: 0x5020, symBinAddr: 0x100008940, symSize: 0x1C }
  - { offsetInCU: 0x22057, offset: 0x22057, size: 0x8, addend: 0x0, symName: __ZNSt3__16vectorINS_12basic_stringIcNS_11char_traitsIcEENS_9allocatorIcEEEENS4_IS6_EEE7__allocB8ue170006Ev, symObjAddr: 0x507C, symBinAddr: 0x10000899C, symSize: 0x28 }
  - { offsetInCU: 0x2207D, offset: 0x2207D, size: 0x8, addend: 0x0, symName: __ZNSt3__16vectorINS_12basic_stringIcNS_11char_traitsIcEENS_9allocatorIcEEEENS4_IS6_EEE9__end_capB8ue170006Ev, symObjAddr: 0x50A4, symBinAddr: 0x1000089C4, symSize: 0x28 }
  - { offsetInCU: 0x220A3, offset: 0x220A3, size: 0x8, addend: 0x0, symName: __ZNKSt3__16vectorINS_12basic_stringIcNS_11char_traitsIcEENS_9allocatorIcEEEENS4_IS6_EEE14__annotate_newB8ue170006Em, symObjAddr: 0x50CC, symBinAddr: 0x1000089EC, symSize: 0xC8 }
  - { offsetInCU: 0x220E2, offset: 0x220E2, size: 0x8, addend: 0x0, symName: __ZNSt3__116allocator_traitsINS_9allocatorINS_12basic_stringIcNS_11char_traitsIcEENS1_IcEEEEEEE8max_sizeB8ue170006IS7_vEEmRKS7_, symObjAddr: 0x5194, symBinAddr: 0x100008AB4, symSize: 0x24 }
  - { offsetInCU: 0x22110, offset: 0x22110, size: 0x8, addend: 0x0, symName: __ZNKSt3__16vectorINS_12basic_stringIcNS_11char_traitsIcEENS_9allocatorIcEEEENS4_IS6_EEE7__allocB8ue170006Ev, symObjAddr: 0x51B8, symBinAddr: 0x100008AD8, symSize: 0x28 }
  - { offsetInCU: 0x22136, offset: 0x22136, size: 0x8, addend: 0x0, symName: __ZNKSt3__19allocatorINS_12basic_stringIcNS_11char_traitsIcEENS0_IcEEEEE8max_sizeB8ue170006Ev, symObjAddr: 0x51E0, symBinAddr: 0x100008B00, symSize: 0x18 }
  - { offsetInCU: 0x2215C, offset: 0x2215C, size: 0x8, addend: 0x0, symName: __ZNKSt3__117__compressed_pairIPNS_12basic_stringIcNS_11char_traitsIcEENS_9allocatorIcEEEENS4_IS6_EEE6secondB8ue170006Ev, symObjAddr: 0x51F8, symBinAddr: 0x100008B18, symSize: 0x24 }
  - { offsetInCU: 0x22182, offset: 0x22182, size: 0x8, addend: 0x0, symName: __ZNKSt3__122__compressed_pair_elemINS_9allocatorINS_12basic_stringIcNS_11char_traitsIcEENS1_IcEEEEEELi1ELb1EE5__getB8ue170006Ev, symObjAddr: 0x521C, symBinAddr: 0x100008B3C, symSize: 0x14 }
  - { offsetInCU: 0x221A8, offset: 0x221A8, size: 0x8, addend: 0x0, symName: __ZNSt3__19allocatorINS_12basic_stringIcNS_11char_traitsIcEENS0_IcEEEEE8allocateB8ue170006Em, symObjAddr: 0x5230, symBinAddr: 0x100008B50, symSize: 0x5C }
  - { offsetInCU: 0x221DC, offset: 0x221DC, size: 0x8, addend: 0x0, symName: __ZNSt3__117__compressed_pairIPNS_12basic_stringIcNS_11char_traitsIcEENS_9allocatorIcEEEENS4_IS6_EEE6secondB8ue170006Ev, symObjAddr: 0x528C, symBinAddr: 0x100008BAC, symSize: 0x24 }
  - { offsetInCU: 0x22202, offset: 0x22202, size: 0x8, addend: 0x0, symName: __ZNSt3__122__compressed_pair_elemINS_9allocatorINS_12basic_stringIcNS_11char_traitsIcEENS1_IcEEEEEELi1ELb1EE5__getB8ue170006Ev, symObjAddr: 0x52B0, symBinAddr: 0x100008BD0, symSize: 0x14 }
  - { offsetInCU: 0x22228, offset: 0x22228, size: 0x8, addend: 0x0, symName: __ZNSt3__117__compressed_pairIPNS_12basic_stringIcNS_11char_traitsIcEENS_9allocatorIcEEEENS4_IS6_EEE5firstB8ue170006Ev, symObjAddr: 0x52C4, symBinAddr: 0x100008BE4, symSize: 0x24 }
  - { offsetInCU: 0x2224E, offset: 0x2224E, size: 0x8, addend: 0x0, symName: __ZNSt3__122__compressed_pair_elemIPNS_12basic_stringIcNS_11char_traitsIcEENS_9allocatorIcEEEELi0ELb0EE5__getB8ue170006Ev, symObjAddr: 0x52E8, symBinAddr: 0x100008C08, symSize: 0x14 }
  - { offsetInCU: 0x22274, offset: 0x22274, size: 0x8, addend: 0x0, symName: __ZNKSt3__16vectorINS_12basic_stringIcNS_11char_traitsIcEENS_9allocatorIcEEEENS4_IS6_EEE31__annotate_contiguous_containerB8ue170006EPKvSA_SA_SA_, symObjAddr: 0x52FC, symBinAddr: 0x100008C1C, symSize: 0x20 }
  - { offsetInCU: 0x222C6, offset: 0x222C6, size: 0x8, addend: 0x0, symName: __ZNKSt3__16vectorINS_12basic_stringIcNS_11char_traitsIcEENS_9allocatorIcEEEENS4_IS6_EEE4dataB8ue170006Ev, symObjAddr: 0x531C, symBinAddr: 0x100008C3C, symSize: 0x28 }
  - { offsetInCU: 0x222EC, offset: 0x222EC, size: 0x8, addend: 0x0, symName: __ZNKSt3__16vectorINS_12basic_stringIcNS_11char_traitsIcEENS_9allocatorIcEEEENS4_IS6_EEE8capacityB8ue170006Ev, symObjAddr: 0x5344, symBinAddr: 0x100008C64, symSize: 0x40 }
  - { offsetInCU: 0x22312, offset: 0x22312, size: 0x8, addend: 0x0, symName: __ZNKSt3__16vectorINS_12basic_stringIcNS_11char_traitsIcEENS_9allocatorIcEEEENS4_IS6_EEE9__end_capB8ue170006Ev, symObjAddr: 0x5398, symBinAddr: 0x100008CB8, symSize: 0x28 }
  - { offsetInCU: 0x22338, offset: 0x22338, size: 0x8, addend: 0x0, symName: __ZNKSt3__117__compressed_pairIPNS_12basic_stringIcNS_11char_traitsIcEENS_9allocatorIcEEEENS4_IS6_EEE5firstB8ue170006Ev, symObjAddr: 0x53C0, symBinAddr: 0x100008CE0, symSize: 0x24 }
  - { offsetInCU: 0x2235E, offset: 0x2235E, size: 0x8, addend: 0x0, symName: __ZNKSt3__122__compressed_pair_elemIPNS_12basic_stringIcNS_11char_traitsIcEENS_9allocatorIcEEEELi0ELb0EE5__getB8ue170006Ev, symObjAddr: 0x53E4, symBinAddr: 0x100008D04, symSize: 0x14 }
  - { offsetInCU: 0x2239E, offset: 0x2239E, size: 0x8, addend: 0x0, symName: __ZNSt3__16vectorINS_12basic_stringIcNS_11char_traitsIcEENS_9allocatorIcEEEENS4_IS6_EEE21_ConstructTransactionC1B8ue170006ERS8_m, symObjAddr: 0x53F8, symBinAddr: 0x100008D18, symSize: 0x3C }
  - { offsetInCU: 0x223E6, offset: 0x223E6, size: 0x8, addend: 0x0, symName: __ZNSt3__16vectorINS_12basic_stringIcNS_11char_traitsIcEENS_9allocatorIcEEEENS4_IS6_EEE21_ConstructTransactionD1B8ue170006Ev, symObjAddr: 0x54B4, symBinAddr: 0x100008DD4, symSize: 0x2C }
  - { offsetInCU: 0x22410, offset: 0x22410, size: 0x8, addend: 0x0, symName: __ZNSt3__16vectorINS_12basic_stringIcNS_11char_traitsIcEENS_9allocatorIcEEEENS4_IS6_EEE21_ConstructTransactionC2B8ue170006ERS8_m, symObjAddr: 0x54E0, symBinAddr: 0x100008E00, symSize: 0x4C }
  - { offsetInCU: 0x22479, offset: 0x22479, size: 0x8, addend: 0x0, symName: __ZNSt3__14pairIPKNS_12basic_stringIcNS_11char_traitsIcEENS_9allocatorIcEEEES8_EC1B8ue170006IS8_S8_LPv0EEEOT_OT0_, symObjAddr: 0x573C, symBinAddr: 0x10000905C, symSize: 0x3C }
  - { offsetInCU: 0x224D7, offset: 0x224D7, size: 0x8, addend: 0x0, symName: __ZNSt3__14pairIPKNS_12basic_stringIcNS_11char_traitsIcEENS_9allocatorIcEEEES8_EC2B8ue170006IS8_S8_LPv0EEEOT_OT0_, symObjAddr: 0x5778, symBinAddr: 0x100009098, symSize: 0x34 }
  - { offsetInCU: 0x22535, offset: 0x22535, size: 0x8, addend: 0x0, symName: __ZNSt3__118__unwrap_iter_implIPKNS_12basic_stringIcNS_11char_traitsIcEENS_9allocatorIcEEEELb1EE8__unwrapB8ue170006ES8_, symObjAddr: 0x57AC, symBinAddr: 0x1000090CC, symSize: 0x24 }
  - { offsetInCU: 0x22558, offset: 0x22558, size: 0x8, addend: 0x0, symName: __ZNSt3__129_AllocatorDestroyRangeReverseINS_9allocatorINS_12basic_stringIcNS_11char_traitsIcEENS1_IcEEEEEEPS6_EC1B8ue170006ERS7_RS8_SB_, symObjAddr: 0x5830, symBinAddr: 0x100009150, symSize: 0x44 }
  - { offsetInCU: 0x225AF, offset: 0x225AF, size: 0x8, addend: 0x0, symName: __ZNSt3__116allocator_traitsINS_9allocatorINS_12basic_stringIcNS_11char_traitsIcEENS1_IcEEEEEEE9constructB8ue170006IS6_JRKS6_EvEEvRS7_PT_DpOT0_, symObjAddr: 0x5874, symBinAddr: 0x100009194, symSize: 0x34 }
  - { offsetInCU: 0x22606, offset: 0x22606, size: 0x8, addend: 0x0, symName: __ZNSt3__128__exception_guard_exceptionsINS_29_AllocatorDestroyRangeReverseINS_9allocatorINS_12basic_stringIcNS_11char_traitsIcEENS2_IcEEEEEEPS7_EEE10__completeB8ue170006Ev, symObjAddr: 0x58A8, symBinAddr: 0x1000091C8, symSize: 0x1C }
  - { offsetInCU: 0x2262C, offset: 0x2262C, size: 0x8, addend: 0x0, symName: __ZNSt3__128__exception_guard_exceptionsINS_29_AllocatorDestroyRangeReverseINS_9allocatorINS_12basic_stringIcNS_11char_traitsIcEENS2_IcEEEEEEPS7_EEED1B8ue170006Ev, symObjAddr: 0x58C4, symBinAddr: 0x1000091E4, symSize: 0x2C }
  - { offsetInCU: 0x22656, offset: 0x22656, size: 0x8, addend: 0x0, symName: __ZNSt3__128__exception_guard_exceptionsINS_29_AllocatorDestroyRangeReverseINS_9allocatorINS_12basic_stringIcNS_11char_traitsIcEENS2_IcEEEEEEPS7_EEEC1B8ue170006ESA_, symObjAddr: 0x58F0, symBinAddr: 0x100009210, symSize: 0x34 }
  - { offsetInCU: 0x2268F, offset: 0x2268F, size: 0x8, addend: 0x0, symName: __ZNSt3__128__exception_guard_exceptionsINS_29_AllocatorDestroyRangeReverseINS_9allocatorINS_12basic_stringIcNS_11char_traitsIcEENS2_IcEEEEEEPS7_EEEC2B8ue170006ESA_, symObjAddr: 0x5924, symBinAddr: 0x100009244, symSize: 0x30 }
  - { offsetInCU: 0x226C8, offset: 0x226C8, size: 0x8, addend: 0x0, symName: __ZNSt3__129_AllocatorDestroyRangeReverseINS_9allocatorINS_12basic_stringIcNS_11char_traitsIcEENS1_IcEEEEEEPS6_EC2B8ue170006ERS7_RS8_SB_, symObjAddr: 0x5954, symBinAddr: 0x100009274, symSize: 0x38 }
  - { offsetInCU: 0x2271F, offset: 0x2271F, size: 0x8, addend: 0x0, symName: __ZNSt3__19allocatorINS_12basic_stringIcNS_11char_traitsIcEENS0_IcEEEEE9constructB8ue170006IS5_JRKS5_EEEvPT_DpOT0_, symObjAddr: 0x598C, symBinAddr: 0x1000092AC, symSize: 0x30 }
  - { offsetInCU: 0x22775, offset: 0x22775, size: 0x8, addend: 0x0, symName: __ZNSt3__128__exception_guard_exceptionsINS_29_AllocatorDestroyRangeReverseINS_9allocatorINS_12basic_stringIcNS_11char_traitsIcEENS2_IcEEEEEEPS7_EEED2B8ue170006Ev, symObjAddr: 0x59BC, symBinAddr: 0x1000092DC, symSize: 0x50 }
  - { offsetInCU: 0x2279F, offset: 0x2279F, size: 0x8, addend: 0x0, symName: __ZNKSt3__129_AllocatorDestroyRangeReverseINS_9allocatorINS_12basic_stringIcNS_11char_traitsIcEENS1_IcEEEEEEPS6_EclB8ue170006Ev, symObjAddr: 0x5A0C, symBinAddr: 0x10000932C, symSize: 0x68 }
  - { offsetInCU: 0x227C5, offset: 0x227C5, size: 0x8, addend: 0x0, symName: __ZNSt3__116reverse_iteratorIPNS_12basic_stringIcNS_11char_traitsIcEENS_9allocatorIcEEEEEC1B8ue170006ES7_, symObjAddr: 0x5AE4, symBinAddr: 0x100009404, symSize: 0x34 }
  - { offsetInCU: 0x227FD, offset: 0x227FD, size: 0x8, addend: 0x0, symName: __ZNSt3__116allocator_traitsINS_9allocatorINS_12basic_stringIcNS_11char_traitsIcEENS1_IcEEEEEEE7destroyB8ue170006IS6_vEEvRS7_PT_, symObjAddr: 0x5B60, symBinAddr: 0x100009480, symSize: 0x2C }
  - { offsetInCU: 0x2283A, offset: 0x2283A, size: 0x8, addend: 0x0, symName: __ZNSt3__116reverse_iteratorIPNS_12basic_stringIcNS_11char_traitsIcEENS_9allocatorIcEEEEEppB8ue170006Ev, symObjAddr: 0x5BB0, symBinAddr: 0x1000094D0, symSize: 0x20 }
  - { offsetInCU: 0x22860, offset: 0x22860, size: 0x8, addend: 0x0, symName: __ZNKSt3__116reverse_iteratorIPNS_12basic_stringIcNS_11char_traitsIcEENS_9allocatorIcEEEEE4baseB8ue170006Ev, symObjAddr: 0x5BD0, symBinAddr: 0x1000094F0, symSize: 0x18 }
  - { offsetInCU: 0x22886, offset: 0x22886, size: 0x8, addend: 0x0, symName: __ZNSt3__19allocatorINS_12basic_stringIcNS_11char_traitsIcEENS0_IcEEEEE7destroyB8ue170006EPS5_, symObjAddr: 0x5BE8, symBinAddr: 0x100009508, symSize: 0x28 }
  - { offsetInCU: 0x228BF, offset: 0x228BF, size: 0x8, addend: 0x0, symName: __ZNSt3__119__to_address_helperINS_16reverse_iteratorIPNS_12basic_stringIcNS_11char_traitsIcEENS_9allocatorIcEEEEEEvE6__callB8ue170006ERKS9_, symObjAddr: 0x5C10, symBinAddr: 0x100009530, symSize: 0x38 }
  - { offsetInCU: 0x228E2, offset: 0x228E2, size: 0x8, addend: 0x0, symName: __ZNKSt3__116reverse_iteratorIPNS_12basic_stringIcNS_11char_traitsIcEENS_9allocatorIcEEEEEptB8ue170006Ev, symObjAddr: 0x5C48, symBinAddr: 0x100009568, symSize: 0x24 }
  - { offsetInCU: 0x22908, offset: 0x22908, size: 0x8, addend: 0x0, symName: __ZNKSt3__116reverse_iteratorIPNS_12basic_stringIcNS_11char_traitsIcEENS_9allocatorIcEEEEEdeB8ue170006Ev, symObjAddr: 0x5C6C, symBinAddr: 0x10000958C, symSize: 0x28 }
  - { offsetInCU: 0x2293C, offset: 0x2293C, size: 0x8, addend: 0x0, symName: __ZNSt3__116reverse_iteratorIPNS_12basic_stringIcNS_11char_traitsIcEENS_9allocatorIcEEEEEC2B8ue170006ES7_, symObjAddr: 0x5C94, symBinAddr: 0x1000095B4, symSize: 0x28 }
  - { offsetInCU: 0x22974, offset: 0x22974, size: 0x8, addend: 0x0, symName: __ZNSt3__118__unwrap_iter_implIPNS_12basic_stringIcNS_11char_traitsIcEENS_9allocatorIcEEEELb1EE8__unwrapB8ue170006ES7_, symObjAddr: 0x5CBC, symBinAddr: 0x1000095DC, symSize: 0x24 }
  - { offsetInCU: 0x22997, offset: 0x22997, size: 0x8, addend: 0x0, symName: __ZNSt3__118__unwrap_iter_implIPNS_12basic_stringIcNS_11char_traitsIcEENS_9allocatorIcEEEELb1EE8__rewrapB8ue170006ES7_S7_, symObjAddr: 0x5CE0, symBinAddr: 0x100009600, symSize: 0x58 }
  - { offsetInCU: 0x229C8, offset: 0x229C8, size: 0x8, addend: 0x0, symName: __ZNSt3__16vectorINS_12basic_stringIcNS_11char_traitsIcEENS_9allocatorIcEEEENS4_IS6_EEE21_ConstructTransactionD2B8ue170006Ev, symObjAddr: 0x5D38, symBinAddr: 0x100009658, symSize: 0x20 }
  - { offsetInCU: 0x229F2, offset: 0x229F2, size: 0x8, addend: 0x0, symName: __ZNSt3__128__exception_guard_exceptionsINS_6vectorINS_12basic_stringIcNS_11char_traitsIcEENS_9allocatorIcEEEENS5_IS7_EEE16__destroy_vectorEED2B8ue170006Ev, symObjAddr: 0x5D58, symBinAddr: 0x100009678, symSize: 0x50 }
  - { offsetInCU: 0x22A1C, offset: 0x22A1C, size: 0x8, addend: 0x0, symName: __ZNSt3__16vectorINS_12basic_stringIcNS_11char_traitsIcEENS_9allocatorIcEEEENS4_IS6_EEE16__destroy_vectorclB8ue170006Ev, symObjAddr: 0x5DA8, symBinAddr: 0x1000096C8, symSize: 0x90 }
  - { offsetInCU: 0x22A42, offset: 0x22A42, size: 0x8, addend: 0x0, symName: __ZNSt3__16vectorINS_12basic_stringIcNS_11char_traitsIcEENS_9allocatorIcEEEENS4_IS6_EEE7__clearB8ue170006Ev, symObjAddr: 0x5E38, symBinAddr: 0x100009758, symSize: 0x28 }
  - { offsetInCU: 0x22A68, offset: 0x22A68, size: 0x8, addend: 0x0, symName: __ZNKSt3__16vectorINS_12basic_stringIcNS_11char_traitsIcEENS_9allocatorIcEEEENS4_IS6_EEE17__annotate_deleteB8ue170006Ev, symObjAddr: 0x5E60, symBinAddr: 0x100009780, symSize: 0xD4 }
  - { offsetInCU: 0x22A8E, offset: 0x22A8E, size: 0x8, addend: 0x0, symName: __ZNSt3__116allocator_traitsINS_9allocatorINS_12basic_stringIcNS_11char_traitsIcEENS1_IcEEEEEEE10deallocateB8ue170006ERS7_PS6_m, symObjAddr: 0x5F34, symBinAddr: 0x100009854, symSize: 0x34 }
  - { offsetInCU: 0x22AD0, offset: 0x22AD0, size: 0x8, addend: 0x0, symName: __ZNSt3__16vectorINS_12basic_stringIcNS_11char_traitsIcEENS_9allocatorIcEEEENS4_IS6_EEE22__base_destruct_at_endB8ue170006EPS6_, symObjAddr: 0x5F68, symBinAddr: 0x100009888, symSize: 0x8C }
  - { offsetInCU: 0x22B14, offset: 0x22B14, size: 0x8, addend: 0x0, symName: __ZNKSt3__16vectorINS_12basic_stringIcNS_11char_traitsIcEENS_9allocatorIcEEEENS4_IS6_EEE4sizeB8ue170006Ev, symObjAddr: 0x5FF4, symBinAddr: 0x100009914, symSize: 0x28 }
  - { offsetInCU: 0x22B3A, offset: 0x22B3A, size: 0x8, addend: 0x0, symName: __ZNSt3__19allocatorINS_12basic_stringIcNS_11char_traitsIcEENS0_IcEEEEE10deallocateB8ue170006EPS5_m, symObjAddr: 0x601C, symBinAddr: 0x10000993C, symSize: 0x44 }
  - { offsetInCU: 0x22B7C, offset: 0x22B7C, size: 0x8, addend: 0x0, symName: __ZNSt3__16vectorIN2sf7TextureENS_9allocatorIS2_EEEC2B8ue170006Ev, symObjAddr: 0x6060, symBinAddr: 0x100009980, symSize: 0x4C }
  - { offsetInCU: 0x22BA6, offset: 0x22BA6, size: 0x8, addend: 0x0, symName: __ZNSt3__117__compressed_pairIPN2sf7TextureENS_9allocatorIS2_EEEC1B8ue170006IDnNS_18__default_init_tagEEEOT_OT0_, symObjAddr: 0x60AC, symBinAddr: 0x1000099CC, symSize: 0x3C }
  - { offsetInCU: 0x22BFE, offset: 0x22BFE, size: 0x8, addend: 0x0, symName: __ZNSt3__117__compressed_pairIPN2sf7TextureENS_9allocatorIS2_EEEC2B8ue170006IDnNS_18__default_init_tagEEEOT_OT0_, symObjAddr: 0x60E8, symBinAddr: 0x100009A08, symSize: 0x40 }
  - { offsetInCU: 0x22C56, offset: 0x22C56, size: 0x8, addend: 0x0, symName: __ZNSt3__122__compressed_pair_elemIPN2sf7TextureELi0ELb0EEC2B8ue170006IDnvEEOT_, symObjAddr: 0x6128, symBinAddr: 0x100009A48, symSize: 0x1C }
  - { offsetInCU: 0x22C98, offset: 0x22C98, size: 0x8, addend: 0x0, symName: __ZNSt3__122__compressed_pair_elemINS_9allocatorIN2sf7TextureEEELi1ELb1EEC2B8ue170006ENS_18__default_init_tagE, symObjAddr: 0x6144, symBinAddr: 0x100009A64, symSize: 0x2C }
  - { offsetInCU: 0x22CCD, offset: 0x22CCD, size: 0x8, addend: 0x0, symName: __ZNSt3__19allocatorIN2sf7TextureEEC2B8ue170006Ev, symObjAddr: 0x6170, symBinAddr: 0x100009A90, symSize: 0x2C }
  - { offsetInCU: 0x22CF7, offset: 0x22CF7, size: 0x8, addend: 0x0, symName: __ZNSt3__116__non_trivial_ifILb1ENS_9allocatorIN2sf7TextureEEEEC2B8ue170006Ev, symObjAddr: 0x619C, symBinAddr: 0x100009ABC, symSize: 0x14 }
  - { offsetInCU: 0x22D21, offset: 0x22D21, size: 0x8, addend: 0x0, symName: __ZNSt3__16vectorIN2sf6SpriteENS_9allocatorIS2_EEEC2B8ue170006Ev, symObjAddr: 0x61B0, symBinAddr: 0x100009AD0, symSize: 0x4C }
  - { offsetInCU: 0x22D4B, offset: 0x22D4B, size: 0x8, addend: 0x0, symName: __ZNSt3__117__compressed_pairIPN2sf6SpriteENS_9allocatorIS2_EEEC1B8ue170006IDnNS_18__default_init_tagEEEOT_OT0_, symObjAddr: 0x61FC, symBinAddr: 0x100009B1C, symSize: 0x3C }
  - { offsetInCU: 0x22DA3, offset: 0x22DA3, size: 0x8, addend: 0x0, symName: __ZNSt3__117__compressed_pairIPN2sf6SpriteENS_9allocatorIS2_EEEC2B8ue170006IDnNS_18__default_init_tagEEEOT_OT0_, symObjAddr: 0x6238, symBinAddr: 0x100009B58, symSize: 0x40 }
  - { offsetInCU: 0x22DFB, offset: 0x22DFB, size: 0x8, addend: 0x0, symName: __ZNSt3__122__compressed_pair_elemIPN2sf6SpriteELi0ELb0EEC2B8ue170006IDnvEEOT_, symObjAddr: 0x6278, symBinAddr: 0x100009B98, symSize: 0x1C }
  - { offsetInCU: 0x22E3D, offset: 0x22E3D, size: 0x8, addend: 0x0, symName: __ZNSt3__122__compressed_pair_elemINS_9allocatorIN2sf6SpriteEEELi1ELb1EEC2B8ue170006ENS_18__default_init_tagE, symObjAddr: 0x6294, symBinAddr: 0x100009BB4, symSize: 0x2C }
  - { offsetInCU: 0x22E72, offset: 0x22E72, size: 0x8, addend: 0x0, symName: __ZNSt3__19allocatorIN2sf6SpriteEEC2B8ue170006Ev, symObjAddr: 0x62C0, symBinAddr: 0x100009BE0, symSize: 0x2C }
  - { offsetInCU: 0x22E9C, offset: 0x22E9C, size: 0x8, addend: 0x0, symName: __ZNSt3__116__non_trivial_ifILb1ENS_9allocatorIN2sf6SpriteEEEEC2B8ue170006Ev, symObjAddr: 0x62EC, symBinAddr: 0x100009C0C, symSize: 0x14 }
  - { offsetInCU: 0x22EC6, offset: 0x22EC6, size: 0x8, addend: 0x0, symName: __ZNSt3__16vectorINS_12basic_stringIcNS_11char_traitsIcEENS_9allocatorIcEEEENS4_IS6_EEE11__make_iterB8ue170006EPS6_, symObjAddr: 0x6300, symBinAddr: 0x100009C20, symSize: 0x30 }
  - { offsetInCU: 0x22EFB, offset: 0x22EFB, size: 0x8, addend: 0x0, symName: __ZNSt3__111__wrap_iterIPNS_12basic_stringIcNS_11char_traitsIcEENS_9allocatorIcEEEEEC1B8ue170006ES7_, symObjAddr: 0x6330, symBinAddr: 0x100009C50, symSize: 0x34 }
  - { offsetInCU: 0x22F33, offset: 0x22F33, size: 0x8, addend: 0x0, symName: __ZNSt3__111__wrap_iterIPNS_12basic_stringIcNS_11char_traitsIcEENS_9allocatorIcEEEEEC2B8ue170006ES7_, symObjAddr: 0x6364, symBinAddr: 0x100009C84, symSize: 0x20 }
  - { offsetInCU: 0x22F6B, offset: 0x22F6B, size: 0x8, addend: 0x0, symName: __ZNKSt3__111__wrap_iterIPNS_12basic_stringIcNS_11char_traitsIcEENS_9allocatorIcEEEEE4baseB8ue170006Ev, symObjAddr: 0x63CC, symBinAddr: 0x100009CEC, symSize: 0x18 }
  - { offsetInCU: 0x22F91, offset: 0x22F91, size: 0x8, addend: 0x0, symName: __ZN2sf4RectIiEC2Ev, symObjAddr: 0x63E4, symBinAddr: 0x100009D04, symSize: 0x24 }
  - { offsetInCU: 0x22FDD, offset: 0x22FDD, size: 0x8, addend: 0x0, symName: __ZNKSt3__113basic_ostreamIcNS_11char_traitsIcEEE6sentrycvbB8ue170006Ev, symObjAddr: 0x65F4, symBinAddr: 0x100009F14, symSize: 0x1C }
  - { offsetInCU: 0x23003, offset: 0x23003, size: 0x8, addend: 0x0, symName: __ZNSt3__119ostreambuf_iteratorIcNS_11char_traitsIcEEEC1B8ue170006ERNS_13basic_ostreamIcS2_EE, symObjAddr: 0x6850, symBinAddr: 0x10000A170, symSize: 0x34 }
  - { offsetInCU: 0x2303B, offset: 0x2303B, size: 0x8, addend: 0x0, symName: __ZNKSt3__18ios_base5flagsB8ue170006Ev, symObjAddr: 0x6884, symBinAddr: 0x10000A1A4, symSize: 0x18 }
  - { offsetInCU: 0x23063, offset: 0x23063, size: 0x8, addend: 0x0, symName: __ZNKSt3__19basic_iosIcNS_11char_traitsIcEEE4fillB8ue170006Ev, symObjAddr: 0x689C, symBinAddr: 0x10000A1BC, symSize: 0x64 }
  - { offsetInCU: 0x2308B, offset: 0x2308B, size: 0x8, addend: 0x0, symName: __ZNKSt3__119ostreambuf_iteratorIcNS_11char_traitsIcEEE6failedB8ue170006Ev, symObjAddr: 0x6900, symBinAddr: 0x10000A220, symSize: 0x24 }
  - { offsetInCU: 0x230B1, offset: 0x230B1, size: 0x8, addend: 0x0, symName: __ZNSt3__19basic_iosIcNS_11char_traitsIcEEE8setstateB8ue170006Ej, symObjAddr: 0x6924, symBinAddr: 0x10000A244, symSize: 0x2C }
  - { offsetInCU: 0x230E6, offset: 0x230E6, size: 0x8, addend: 0x0, symName: __ZNKSt3__18ios_base5widthB8ue170006Ev, symObjAddr: 0x6950, symBinAddr: 0x10000A270, symSize: 0x18 }
  - { offsetInCU: 0x2310E, offset: 0x2310E, size: 0x8, addend: 0x0, symName: __ZNSt3__115basic_streambufIcNS_11char_traitsIcEEE5sputnB8ue170006EPKcl, symObjAddr: 0x6968, symBinAddr: 0x10000A288, symSize: 0x3C }
  - { offsetInCU: 0x23150, offset: 0x23150, size: 0x8, addend: 0x0, symName: __ZNSt3__112basic_stringIcNS_11char_traitsIcEENS_9allocatorIcEEEC1B8ue170006Emc, symObjAddr: 0x69A4, symBinAddr: 0x10000A2C4, symSize: 0x3C }
  - { offsetInCU: 0x23198, offset: 0x23198, size: 0x8, addend: 0x0, symName: __ZNKSt3__112basic_stringIcNS_11char_traitsIcEENS_9allocatorIcEEE4dataB8ue170006Ev, symObjAddr: 0x69E0, symBinAddr: 0x10000A300, symSize: 0x28 }
  - { offsetInCU: 0x231BE, offset: 0x231BE, size: 0x8, addend: 0x0, symName: __ZNSt3__18ios_base5widthB8ue170006El, symObjAddr: 0x6A08, symBinAddr: 0x10000A328, symSize: 0x2C }
  - { offsetInCU: 0x23204, offset: 0x23204, size: 0x8, addend: 0x0, symName: __ZNSt3__112basic_stringIcNS_11char_traitsIcEENS_9allocatorIcEEEC2B8ue170006Emc, symObjAddr: 0x6A34, symBinAddr: 0x10000A354, symSize: 0x4C }
  - { offsetInCU: 0x2324C, offset: 0x2324C, size: 0x8, addend: 0x0, symName: __ZNKSt3__112basic_stringIcNS_11char_traitsIcEENS_9allocatorIcEEE13__get_pointerB8ue170006Ev, symObjAddr: 0x6A94, symBinAddr: 0x10000A3B4, symSize: 0x54 }
  - { offsetInCU: 0x23272, offset: 0x23272, size: 0x8, addend: 0x0, symName: __ZNKSt3__112basic_stringIcNS_11char_traitsIcEENS_9allocatorIcEEE9__is_longB8ue170006Ev, symObjAddr: 0x6AE8, symBinAddr: 0x10000A408, symSize: 0x38 }
  - { offsetInCU: 0x23298, offset: 0x23298, size: 0x8, addend: 0x0, symName: __ZNKSt3__112basic_stringIcNS_11char_traitsIcEENS_9allocatorIcEEE18__get_long_pointerB8ue170006Ev, symObjAddr: 0x6B20, symBinAddr: 0x10000A440, symSize: 0x28 }
  - { offsetInCU: 0x232BE, offset: 0x232BE, size: 0x8, addend: 0x0, symName: __ZNKSt3__112basic_stringIcNS_11char_traitsIcEENS_9allocatorIcEEE19__get_short_pointerB8ue170006Ev, symObjAddr: 0x6B48, symBinAddr: 0x10000A468, symSize: 0x28 }
  - { offsetInCU: 0x232E4, offset: 0x232E4, size: 0x8, addend: 0x0, symName: __ZNKSt3__117__compressed_pairINS_12basic_stringIcNS_11char_traitsIcEENS_9allocatorIcEEE5__repES5_E5firstB8ue170006Ev, symObjAddr: 0x6B70, symBinAddr: 0x10000A490, symSize: 0x24 }
  - { offsetInCU: 0x2330A, offset: 0x2330A, size: 0x8, addend: 0x0, symName: __ZNKSt3__122__compressed_pair_elemINS_12basic_stringIcNS_11char_traitsIcEENS_9allocatorIcEEE5__repELi0ELb0EE5__getB8ue170006Ev, symObjAddr: 0x6B94, symBinAddr: 0x10000A4B4, symSize: 0x14 }
  - { offsetInCU: 0x23330, offset: 0x23330, size: 0x8, addend: 0x0, symName: __ZNSt3__114pointer_traitsIPKcE10pointer_toB8ue170006ERS1_, symObjAddr: 0x6BA8, symBinAddr: 0x10000A4C8, symSize: 0x14 }
  - { offsetInCU: 0x23353, offset: 0x23353, size: 0x8, addend: 0x0, symName: __ZNSt3__119ostreambuf_iteratorIcNS_11char_traitsIcEEEC2B8ue170006ERNS_13basic_ostreamIcS2_EE, symObjAddr: 0x6BBC, symBinAddr: 0x10000A4DC, symSize: 0x54 }
  - { offsetInCU: 0x2338B, offset: 0x2338B, size: 0x8, addend: 0x0, symName: __ZNKSt3__19basic_iosIcNS_11char_traitsIcEEE5rdbufB8ue170006Ev, symObjAddr: 0x6C10, symBinAddr: 0x10000A530, symSize: 0x24 }
  - { offsetInCU: 0x233B3, offset: 0x233B3, size: 0x8, addend: 0x0, symName: __ZNKSt3__18ios_base5rdbufB8ue170006Ev, symObjAddr: 0x6C34, symBinAddr: 0x10000A554, symSize: 0x18 }
  - { offsetInCU: 0x233D9, offset: 0x233D9, size: 0x8, addend: 0x0, symName: __ZNSt3__111char_traitsIcE11eq_int_typeB8ue170006Eii, symObjAddr: 0x6C4C, symBinAddr: 0x10000A56C, symSize: 0x28 }
  - { offsetInCU: 0x2340C, offset: 0x2340C, size: 0x8, addend: 0x0, symName: __ZNSt3__111char_traitsIcE3eofB8ue170006Ev, symObjAddr: 0x6C74, symBinAddr: 0x10000A594, symSize: 0x8 }
  - { offsetInCU: 0x23420, offset: 0x23420, size: 0x8, addend: 0x0, symName: __ZNKSt3__19basic_iosIcNS_11char_traitsIcEEE5widenB8ue170006Ec, symObjAddr: 0x6C7C, symBinAddr: 0x10000A59C, symSize: 0x84 }
  - { offsetInCU: 0x23490, offset: 0x23490, size: 0x8, addend: 0x0, symName: __ZNKSt3__15ctypeIcE5widenB8ue170006Ec, symObjAddr: 0x6D2C, symBinAddr: 0x10000A64C, symSize: 0x38 }
  - { offsetInCU: 0x234C5, offset: 0x234C5, size: 0x8, addend: 0x0, symName: __ZNSt3__18ios_base8setstateB8ue170006Ej, symObjAddr: 0x6D64, symBinAddr: 0x10000A684, symSize: 0x34 }
  - { offsetInCU: 0x234FC, offset: 0x234FC, size: 0x8, addend: 0x0, symName: __ZNKSt3__112basic_stringIcNS_11char_traitsIcEENS_9allocatorIcEEE4sizeB8ue170006Ev, symObjAddr: 0x6D98, symBinAddr: 0x10000A6B8, symSize: 0x54 }
  - { offsetInCU: 0x23522, offset: 0x23522, size: 0x8, addend: 0x0, symName: __ZNKSt3__112basic_stringIcNS_11char_traitsIcEENS_9allocatorIcEEE15__get_long_sizeB8ue170006Ev, symObjAddr: 0x6DEC, symBinAddr: 0x10000A70C, symSize: 0x28 }
  - { offsetInCU: 0x23548, offset: 0x23548, size: 0x8, addend: 0x0, symName: __ZNKSt3__112basic_stringIcNS_11char_traitsIcEENS_9allocatorIcEEE16__get_short_sizeB8ue170006Ev, symObjAddr: 0x6E14, symBinAddr: 0x10000A734, symSize: 0x34 }
  - { offsetInCU: 0x2356E, offset: 0x2356E, size: 0x8, addend: 0x0, symName: __ZNSt3__16vectorIN2sf7TextureENS_9allocatorIS2_EEE9__end_capB8ue170006Ev, symObjAddr: 0x6E48, symBinAddr: 0x10000A768, symSize: 0x28 }
  - { offsetInCU: 0x23594, offset: 0x23594, size: 0x8, addend: 0x0, symName: __ZNSt3__16vectorIN2sf7TextureENS_9allocatorIS2_EEE22__construct_one_at_endB8ue170006IJRKS2_EEEvDpOT_, symObjAddr: 0x6E70, symBinAddr: 0x10000A790, symSize: 0x90 }
  - { offsetInCU: 0x235E3, offset: 0x235E3, size: 0x8, addend: 0x0, symName: __ZNSt3__16vectorIN2sf7TextureENS_9allocatorIS2_EEE21__push_back_slow_pathIRKS2_EEvOT_, symObjAddr: 0x6F00, symBinAddr: 0x10000A820, symSize: 0xD8 }
  - { offsetInCU: 0x23641, offset: 0x23641, size: 0x8, addend: 0x0, symName: __ZNSt3__117__compressed_pairIPN2sf7TextureENS_9allocatorIS2_EEE5firstB8ue170006Ev, symObjAddr: 0x6FD8, symBinAddr: 0x10000A8F8, symSize: 0x24 }
  - { offsetInCU: 0x23667, offset: 0x23667, size: 0x8, addend: 0x0, symName: __ZNSt3__122__compressed_pair_elemIPN2sf7TextureELi0ELb0EE5__getB8ue170006Ev, symObjAddr: 0x6FFC, symBinAddr: 0x10000A91C, symSize: 0x14 }
  - { offsetInCU: 0x236A7, offset: 0x236A7, size: 0x8, addend: 0x0, symName: __ZNSt3__16vectorIN2sf7TextureENS_9allocatorIS2_EEE21_ConstructTransactionC1B8ue170006ERS5_m, symObjAddr: 0x7010, symBinAddr: 0x10000A930, symSize: 0x3C }
  - { offsetInCU: 0x236EF, offset: 0x236EF, size: 0x8, addend: 0x0, symName: __ZNSt3__116allocator_traitsINS_9allocatorIN2sf7TextureEEEE9constructB8ue170006IS3_JRKS3_EvEEvRS4_PT_DpOT0_, symObjAddr: 0x704C, symBinAddr: 0x10000A96C, symSize: 0x34 }
  - { offsetInCU: 0x23746, offset: 0x23746, size: 0x8, addend: 0x0, symName: __ZNSt3__16vectorIN2sf7TextureENS_9allocatorIS2_EEE7__allocB8ue170006Ev, symObjAddr: 0x7080, symBinAddr: 0x10000A9A0, symSize: 0x28 }
  - { offsetInCU: 0x2376C, offset: 0x2376C, size: 0x8, addend: 0x0, symName: __ZNSt3__16vectorIN2sf7TextureENS_9allocatorIS2_EEE21_ConstructTransactionD1B8ue170006Ev, symObjAddr: 0x70BC, symBinAddr: 0x10000A9DC, symSize: 0x2C }
  - { offsetInCU: 0x23796, offset: 0x23796, size: 0x8, addend: 0x0, symName: __ZNSt3__16vectorIN2sf7TextureENS_9allocatorIS2_EEE21_ConstructTransactionC2B8ue170006ERS5_m, symObjAddr: 0x70E8, symBinAddr: 0x10000AA08, symSize: 0x4C }
  - { offsetInCU: 0x237DE, offset: 0x237DE, size: 0x8, addend: 0x0, symName: __ZNSt3__19allocatorIN2sf7TextureEE9constructB8ue170006IS2_JRKS2_EEEvPT_DpOT0_, symObjAddr: 0x7134, symBinAddr: 0x10000AA54, symSize: 0x30 }
  - { offsetInCU: 0x23834, offset: 0x23834, size: 0x8, addend: 0x0, symName: __ZNSt3__117__compressed_pairIPN2sf7TextureENS_9allocatorIS2_EEE6secondB8ue170006Ev, symObjAddr: 0x7164, symBinAddr: 0x10000AA84, symSize: 0x24 }
  - { offsetInCU: 0x2385A, offset: 0x2385A, size: 0x8, addend: 0x0, symName: __ZNSt3__122__compressed_pair_elemINS_9allocatorIN2sf7TextureEEELi1ELb1EE5__getB8ue170006Ev, symObjAddr: 0x7188, symBinAddr: 0x10000AAA8, symSize: 0x14 }
  - { offsetInCU: 0x23880, offset: 0x23880, size: 0x8, addend: 0x0, symName: __ZNSt3__16vectorIN2sf7TextureENS_9allocatorIS2_EEE21_ConstructTransactionD2B8ue170006Ev, symObjAddr: 0x719C, symBinAddr: 0x10000AABC, symSize: 0x20 }
  - { offsetInCU: 0x238AA, offset: 0x238AA, size: 0x8, addend: 0x0, symName: __ZNKSt3__16vectorIN2sf7TextureENS_9allocatorIS2_EEE11__recommendB8ue170006Em, symObjAddr: 0x71BC, symBinAddr: 0x10000AADC, symSize: 0xB4 }
  - { offsetInCU: 0x238FF, offset: 0x238FF, size: 0x8, addend: 0x0, symName: __ZNSt3__114__split_bufferIN2sf7TextureERNS_9allocatorIS2_EEEC1EmmS5_, symObjAddr: 0x7270, symBinAddr: 0x10000AB90, symSize: 0x44 }
  - { offsetInCU: 0x23955, offset: 0x23955, size: 0x8, addend: 0x0, symName: __ZNSt3__114__split_bufferIN2sf7TextureERNS_9allocatorIS2_EEED1Ev, symObjAddr: 0x73C4, symBinAddr: 0x10000ACE4, symSize: 0x2C }
  - { offsetInCU: 0x23981, offset: 0x23981, size: 0x8, addend: 0x0, symName: __ZNKSt3__16vectorIN2sf7TextureENS_9allocatorIS2_EEE8max_sizeEv, symObjAddr: 0x73F0, symBinAddr: 0x10000AD10, symSize: 0x60 }
  - { offsetInCU: 0x239A9, offset: 0x239A9, size: 0x8, addend: 0x0, symName: __ZNKSt3__16vectorIN2sf7TextureENS_9allocatorIS2_EEE20__throw_length_errorB8ue170006Ev, symObjAddr: 0x7450, symBinAddr: 0x10000AD70, symSize: 0x1C }
  - { offsetInCU: 0x239CF, offset: 0x239CF, size: 0x8, addend: 0x0, symName: __ZNKSt3__16vectorIN2sf7TextureENS_9allocatorIS2_EEE8capacityB8ue170006Ev, symObjAddr: 0x746C, symBinAddr: 0x10000AD8C, symSize: 0x40 }
  - { offsetInCU: 0x239FF, offset: 0x239FF, size: 0x8, addend: 0x0, symName: __ZNSt3__116allocator_traitsINS_9allocatorIN2sf7TextureEEEE8max_sizeB8ue170006IS4_vEEmRKS4_, symObjAddr: 0x74D8, symBinAddr: 0x10000ADF8, symSize: 0x24 }
  - { offsetInCU: 0x23A2D, offset: 0x23A2D, size: 0x8, addend: 0x0, symName: __ZNKSt3__16vectorIN2sf7TextureENS_9allocatorIS2_EEE7__allocB8ue170006Ev, symObjAddr: 0x74FC, symBinAddr: 0x10000AE1C, symSize: 0x28 }
  - { offsetInCU: 0x23A53, offset: 0x23A53, size: 0x8, addend: 0x0, symName: __ZNKSt3__19allocatorIN2sf7TextureEE8max_sizeB8ue170006Ev, symObjAddr: 0x7524, symBinAddr: 0x10000AE44, symSize: 0x18 }
  - { offsetInCU: 0x23A79, offset: 0x23A79, size: 0x8, addend: 0x0, symName: __ZNKSt3__117__compressed_pairIPN2sf7TextureENS_9allocatorIS2_EEE6secondB8ue170006Ev, symObjAddr: 0x753C, symBinAddr: 0x10000AE5C, symSize: 0x24 }
  - { offsetInCU: 0x23A9F, offset: 0x23A9F, size: 0x8, addend: 0x0, symName: __ZNKSt3__122__compressed_pair_elemINS_9allocatorIN2sf7TextureEEELi1ELb1EE5__getB8ue170006Ev, symObjAddr: 0x7560, symBinAddr: 0x10000AE80, symSize: 0x14 }
  - { offsetInCU: 0x23AC5, offset: 0x23AC5, size: 0x8, addend: 0x0, symName: __ZNKSt3__16vectorIN2sf7TextureENS_9allocatorIS2_EEE9__end_capB8ue170006Ev, symObjAddr: 0x7574, symBinAddr: 0x10000AE94, symSize: 0x28 }
  - { offsetInCU: 0x23AEB, offset: 0x23AEB, size: 0x8, addend: 0x0, symName: __ZNKSt3__117__compressed_pairIPN2sf7TextureENS_9allocatorIS2_EEE5firstB8ue170006Ev, symObjAddr: 0x759C, symBinAddr: 0x10000AEBC, symSize: 0x24 }
  - { offsetInCU: 0x23B11, offset: 0x23B11, size: 0x8, addend: 0x0, symName: __ZNKSt3__122__compressed_pair_elemIPN2sf7TextureELi0ELb0EE5__getB8ue170006Ev, symObjAddr: 0x75C0, symBinAddr: 0x10000AEE0, symSize: 0x14 }
  - { offsetInCU: 0x23B37, offset: 0x23B37, size: 0x8, addend: 0x0, symName: __ZNSt3__114__split_bufferIN2sf7TextureERNS_9allocatorIS2_EEEC2EmmS5_, symObjAddr: 0x7628, symBinAddr: 0x10000AF48, symSize: 0xE0 }
  - { offsetInCU: 0x23BAA, offset: 0x23BAA, size: 0x8, addend: 0x0, symName: __ZNSt3__117__compressed_pairIPN2sf7TextureERNS_9allocatorIS2_EEEC1B8ue170006IDnS6_EEOT_OT0_, symObjAddr: 0x7708, symBinAddr: 0x10000B028, symSize: 0x3C }
  - { offsetInCU: 0x23C02, offset: 0x23C02, size: 0x8, addend: 0x0, symName: __ZNSt3__114__split_bufferIN2sf7TextureERNS_9allocatorIS2_EEE7__allocB8ue170006Ev, symObjAddr: 0x7784, symBinAddr: 0x10000B0A4, symSize: 0x28 }
  - { offsetInCU: 0x23C28, offset: 0x23C28, size: 0x8, addend: 0x0, symName: __ZNSt3__114__split_bufferIN2sf7TextureERNS_9allocatorIS2_EEE9__end_capB8ue170006Ev, symObjAddr: 0x77AC, symBinAddr: 0x10000B0CC, symSize: 0x28 }
  - { offsetInCU: 0x23C4E, offset: 0x23C4E, size: 0x8, addend: 0x0, symName: __ZNSt3__117__compressed_pairIPN2sf7TextureERNS_9allocatorIS2_EEEC2B8ue170006IDnS6_EEOT_OT0_, symObjAddr: 0x77D4, symBinAddr: 0x10000B0F4, symSize: 0x48 }
  - { offsetInCU: 0x23CA6, offset: 0x23CA6, size: 0x8, addend: 0x0, symName: __ZNSt3__122__compressed_pair_elemIRNS_9allocatorIN2sf7TextureEEELi1ELb0EEC2B8ue170006IS5_vEEOT_, symObjAddr: 0x781C, symBinAddr: 0x10000B13C, symSize: 0x20 }
  - { offsetInCU: 0x23CE8, offset: 0x23CE8, size: 0x8, addend: 0x0, symName: __ZNSt3__19allocatorIN2sf7TextureEE8allocateB8ue170006Em, symObjAddr: 0x783C, symBinAddr: 0x10000B15C, symSize: 0x5C }
  - { offsetInCU: 0x23D1C, offset: 0x23D1C, size: 0x8, addend: 0x0, symName: __ZNSt3__117__compressed_pairIPN2sf7TextureERNS_9allocatorIS2_EEE6secondB8ue170006Ev, symObjAddr: 0x7898, symBinAddr: 0x10000B1B8, symSize: 0x28 }
  - { offsetInCU: 0x23D42, offset: 0x23D42, size: 0x8, addend: 0x0, symName: __ZNSt3__122__compressed_pair_elemIRNS_9allocatorIN2sf7TextureEEELi1ELb0EE5__getB8ue170006Ev, symObjAddr: 0x78C0, symBinAddr: 0x10000B1E0, symSize: 0x18 }
  - { offsetInCU: 0x23D68, offset: 0x23D68, size: 0x8, addend: 0x0, symName: __ZNSt3__117__compressed_pairIPN2sf7TextureERNS_9allocatorIS2_EEE5firstB8ue170006Ev, symObjAddr: 0x78D8, symBinAddr: 0x10000B1F8, symSize: 0x24 }
  - { offsetInCU: 0x23D8E, offset: 0x23D8E, size: 0x8, addend: 0x0, symName: __ZNKSt3__16vectorIN2sf7TextureENS_9allocatorIS2_EEE17__annotate_deleteB8ue170006Ev, symObjAddr: 0x78FC, symBinAddr: 0x10000B21C, symSize: 0xD4 }
  - { offsetInCU: 0x23DB4, offset: 0x23DB4, size: 0x8, addend: 0x0, symName: __ZNSt3__116reverse_iteratorIPN2sf7TextureEEC1B8ue170006ES3_, symObjAddr: 0x7AFC, symBinAddr: 0x10000B41C, symSize: 0x34 }
  - { offsetInCU: 0x23DEC, offset: 0x23DEC, size: 0x8, addend: 0x0, symName: __ZNKSt3__116reverse_iteratorIPN2sf7TextureEE4baseB8ue170006Ev, symObjAddr: 0x7B30, symBinAddr: 0x10000B450, symSize: 0x18 }
  - { offsetInCU: 0x23E12, offset: 0x23E12, size: 0x8, addend: 0x0, symName: __ZNKSt3__16vectorIN2sf7TextureENS_9allocatorIS2_EEE14__annotate_newB8ue170006Em, symObjAddr: 0x7B84, symBinAddr: 0x10000B4A4, symSize: 0xC8 }
  - { offsetInCU: 0x23E47, offset: 0x23E47, size: 0x8, addend: 0x0, symName: __ZNKSt3__16vectorIN2sf7TextureENS_9allocatorIS2_EEE31__annotate_contiguous_containerB8ue170006EPKvS7_S7_S7_, symObjAddr: 0x7C4C, symBinAddr: 0x10000B56C, symSize: 0x20 }
  - { offsetInCU: 0x23E99, offset: 0x23E99, size: 0x8, addend: 0x0, symName: __ZNKSt3__16vectorIN2sf7TextureENS_9allocatorIS2_EEE4dataB8ue170006Ev, symObjAddr: 0x7C6C, symBinAddr: 0x10000B58C, symSize: 0x28 }
  - { offsetInCU: 0x23EBF, offset: 0x23EBF, size: 0x8, addend: 0x0, symName: __ZNSt3__129_AllocatorDestroyRangeReverseINS_9allocatorIN2sf7TextureEEENS_16reverse_iteratorIPS3_EEEC1B8ue170006ERS4_RS7_SA_, symObjAddr: 0x7CE0, symBinAddr: 0x10000B600, symSize: 0x44 }
  - { offsetInCU: 0x23F16, offset: 0x23F16, size: 0x8, addend: 0x0, symName: __ZNKSt3__116reverse_iteratorIPN2sf7TextureEEdeB8ue170006Ev, symObjAddr: 0x7D90, symBinAddr: 0x10000B6B0, symSize: 0x28 }
  - { offsetInCU: 0x23F4A, offset: 0x23F4A, size: 0x8, addend: 0x0, symName: __ZNSt3__116reverse_iteratorIPN2sf7TextureEEppB8ue170006Ev, symObjAddr: 0x7DB8, symBinAddr: 0x10000B6D8, symSize: 0x20 }
  - { offsetInCU: 0x23F70, offset: 0x23F70, size: 0x8, addend: 0x0, symName: __ZNSt3__128__exception_guard_exceptionsINS_29_AllocatorDestroyRangeReverseINS_9allocatorIN2sf7TextureEEENS_16reverse_iteratorIPS4_EEEEE10__completeB8ue170006Ev, symObjAddr: 0x7DD8, symBinAddr: 0x10000B6F8, symSize: 0x1C }
  - { offsetInCU: 0x23F96, offset: 0x23F96, size: 0x8, addend: 0x0, symName: __ZNSt3__128__exception_guard_exceptionsINS_29_AllocatorDestroyRangeReverseINS_9allocatorIN2sf7TextureEEENS_16reverse_iteratorIPS4_EEEEED1B8ue170006Ev, symObjAddr: 0x7DF4, symBinAddr: 0x10000B714, symSize: 0x2C }
  - { offsetInCU: 0x23FC0, offset: 0x23FC0, size: 0x8, addend: 0x0, symName: __ZNSt3__128__exception_guard_exceptionsINS_29_AllocatorDestroyRangeReverseINS_9allocatorIN2sf7TextureEEENS_16reverse_iteratorIPS4_EEEEEC1B8ue170006ES9_, symObjAddr: 0x7E20, symBinAddr: 0x10000B740, symSize: 0x34 }
  - { offsetInCU: 0x23FF9, offset: 0x23FF9, size: 0x8, addend: 0x0, symName: __ZNSt3__128__exception_guard_exceptionsINS_29_AllocatorDestroyRangeReverseINS_9allocatorIN2sf7TextureEEENS_16reverse_iteratorIPS4_EEEEEC2B8ue170006ES9_, symObjAddr: 0x7E54, symBinAddr: 0x10000B774, symSize: 0x30 }
  - { offsetInCU: 0x24032, offset: 0x24032, size: 0x8, addend: 0x0, symName: __ZNSt3__129_AllocatorDestroyRangeReverseINS_9allocatorIN2sf7TextureEEENS_16reverse_iteratorIPS3_EEEC2B8ue170006ERS4_RS7_SA_, symObjAddr: 0x7E84, symBinAddr: 0x10000B7A4, symSize: 0x38 }
  - { offsetInCU: 0x2408E, offset: 0x2408E, size: 0x8, addend: 0x0, symName: __ZNSt3__119__to_address_helperINS_16reverse_iteratorIPN2sf7TextureEEEvE6__callB8ue170006ERKS5_, symObjAddr: 0x7EBC, symBinAddr: 0x10000B7DC, symSize: 0x38 }
  - { offsetInCU: 0x240B1, offset: 0x240B1, size: 0x8, addend: 0x0, symName: __ZNKSt3__116reverse_iteratorIPN2sf7TextureEEptB8ue170006Ev, symObjAddr: 0x7EF4, symBinAddr: 0x10000B814, symSize: 0x24 }
  - { offsetInCU: 0x240D7, offset: 0x240D7, size: 0x8, addend: 0x0, symName: __ZNSt3__128__exception_guard_exceptionsINS_29_AllocatorDestroyRangeReverseINS_9allocatorIN2sf7TextureEEENS_16reverse_iteratorIPS4_EEEEED2B8ue170006Ev, symObjAddr: 0x7F18, symBinAddr: 0x10000B838, symSize: 0x50 }
  - { offsetInCU: 0x24101, offset: 0x24101, size: 0x8, addend: 0x0, symName: __ZNKSt3__129_AllocatorDestroyRangeReverseINS_9allocatorIN2sf7TextureEEENS_16reverse_iteratorIPS3_EEEclB8ue170006Ev, symObjAddr: 0x7F68, symBinAddr: 0x10000B888, symSize: 0xB4 }
  - { offsetInCU: 0x24128, offset: 0x24128, size: 0x8, addend: 0x0, symName: __ZNSt3__116reverse_iteratorINS0_IPN2sf7TextureEEEEC1B8ue170006ES4_, symObjAddr: 0x808C, symBinAddr: 0x10000B9AC, symSize: 0x3C }
  - { offsetInCU: 0x24160, offset: 0x24160, size: 0x8, addend: 0x0, symName: __ZNSt3__116allocator_traitsINS_9allocatorIN2sf7TextureEEEE7destroyB8ue170006IS3_vEEvRS4_PT_, symObjAddr: 0x8128, symBinAddr: 0x10000BA48, symSize: 0x2C }
  - { offsetInCU: 0x2419D, offset: 0x2419D, size: 0x8, addend: 0x0, symName: __ZNSt3__116reverse_iteratorINS0_IPN2sf7TextureEEEEppB8ue170006Ev, symObjAddr: 0x8178, symBinAddr: 0x10000BA98, symSize: 0x30 }
  - { offsetInCU: 0x241C3, offset: 0x241C3, size: 0x8, addend: 0x0, symName: __ZNKSt3__116reverse_iteratorINS0_IPN2sf7TextureEEEE4baseB8ue170006Ev, symObjAddr: 0x81A8, symBinAddr: 0x10000BAC8, symSize: 0x24 }
  - { offsetInCU: 0x241E9, offset: 0x241E9, size: 0x8, addend: 0x0, symName: __ZNSt3__19allocatorIN2sf7TextureEE7destroyB8ue170006EPS2_, symObjAddr: 0x81CC, symBinAddr: 0x10000BAEC, symSize: 0x28 }
  - { offsetInCU: 0x24222, offset: 0x24222, size: 0x8, addend: 0x0, symName: __ZNSt3__119__to_address_helperINS_16reverse_iteratorINS1_IPN2sf7TextureEEEEEvE6__callB8ue170006ERKS6_, symObjAddr: 0x81F4, symBinAddr: 0x10000BB14, symSize: 0x38 }
  - { offsetInCU: 0x24245, offset: 0x24245, size: 0x8, addend: 0x0, symName: __ZNKSt3__116reverse_iteratorINS0_IPN2sf7TextureEEEEptB8ue170006Ev, symObjAddr: 0x822C, symBinAddr: 0x10000BB4C, symSize: 0x24 }
  - { offsetInCU: 0x2426B, offset: 0x2426B, size: 0x8, addend: 0x0, symName: __ZNKSt3__116reverse_iteratorINS0_IPN2sf7TextureEEEEdeB8ue170006Ev, symObjAddr: 0x8250, symBinAddr: 0x10000BB70, symSize: 0x34 }
  - { offsetInCU: 0x2429F, offset: 0x2429F, size: 0x8, addend: 0x0, symName: __ZNSt3__116reverse_iteratorIPN2sf7TextureEEmmB8ue170006Ev, symObjAddr: 0x8284, symBinAddr: 0x10000BBA4, symSize: 0x20 }
  - { offsetInCU: 0x242C5, offset: 0x242C5, size: 0x8, addend: 0x0, symName: __ZNSt3__116reverse_iteratorINS0_IPN2sf7TextureEEEEC2B8ue170006ES4_, symObjAddr: 0x82A4, symBinAddr: 0x10000BBC4, symSize: 0x2C }
  - { offsetInCU: 0x242FD, offset: 0x242FD, size: 0x8, addend: 0x0, symName: __ZNSt3__116reverse_iteratorIPN2sf7TextureEEC2B8ue170006ES3_, symObjAddr: 0x82D0, symBinAddr: 0x10000BBF0, symSize: 0x28 }
  - { offsetInCU: 0x24335, offset: 0x24335, size: 0x8, addend: 0x0, symName: __ZNSt3__114__split_bufferIN2sf7TextureERNS_9allocatorIS2_EEED2Ev, symObjAddr: 0x82F8, symBinAddr: 0x10000BC18, symSize: 0x8C }
  - { offsetInCU: 0x24361, offset: 0x24361, size: 0x8, addend: 0x0, symName: __ZNSt3__114__split_bufferIN2sf7TextureERNS_9allocatorIS2_EEE5clearB8ue170006Ev, symObjAddr: 0x8384, symBinAddr: 0x10000BCA4, symSize: 0x28 }
  - { offsetInCU: 0x24387, offset: 0x24387, size: 0x8, addend: 0x0, symName: __ZNSt3__116allocator_traitsINS_9allocatorIN2sf7TextureEEEE10deallocateB8ue170006ERS4_PS3_m, symObjAddr: 0x83AC, symBinAddr: 0x10000BCCC, symSize: 0x34 }
  - { offsetInCU: 0x243C9, offset: 0x243C9, size: 0x8, addend: 0x0, symName: __ZNKSt3__114__split_bufferIN2sf7TextureERNS_9allocatorIS2_EEE8capacityB8ue170006Ev, symObjAddr: 0x83E0, symBinAddr: 0x10000BD00, symSize: 0x40 }
  - { offsetInCU: 0x243EF, offset: 0x243EF, size: 0x8, addend: 0x0, symName: __ZNSt3__114__split_bufferIN2sf7TextureERNS_9allocatorIS2_EEE17__destruct_at_endB8ue170006EPS2_, symObjAddr: 0x8420, symBinAddr: 0x10000BD40, symSize: 0x2C }
  - { offsetInCU: 0x24423, offset: 0x24423, size: 0x8, addend: 0x0, symName: __ZNSt3__114__split_bufferIN2sf7TextureERNS_9allocatorIS2_EEE17__destruct_at_endB8ue170006EPS2_NS_17integral_constantIbLb0EEE, symObjAddr: 0x844C, symBinAddr: 0x10000BD6C, symSize: 0x80 }
  - { offsetInCU: 0x24464, offset: 0x24464, size: 0x8, addend: 0x0, symName: __ZNSt3__19allocatorIN2sf7TextureEE10deallocateB8ue170006EPS2_m, symObjAddr: 0x84CC, symBinAddr: 0x10000BDEC, symSize: 0x44 }
  - { offsetInCU: 0x244A6, offset: 0x244A6, size: 0x8, addend: 0x0, symName: __ZNKSt3__114__split_bufferIN2sf7TextureERNS_9allocatorIS2_EEE9__end_capB8ue170006Ev, symObjAddr: 0x8510, symBinAddr: 0x10000BE30, symSize: 0x28 }
  - { offsetInCU: 0x244CC, offset: 0x244CC, size: 0x8, addend: 0x0, symName: __ZNKSt3__117__compressed_pairIPN2sf7TextureERNS_9allocatorIS2_EEE5firstB8ue170006Ev, symObjAddr: 0x8538, symBinAddr: 0x10000BE58, symSize: 0x24 }
  - { offsetInCU: 0x244F2, offset: 0x244F2, size: 0x8, addend: 0x0, symName: __ZNSt3__16vectorIN2sf6SpriteENS_9allocatorIS2_EEE9__end_capB8ue170006Ev, symObjAddr: 0x855C, symBinAddr: 0x10000BE7C, symSize: 0x28 }
  - { offsetInCU: 0x24518, offset: 0x24518, size: 0x8, addend: 0x0, symName: __ZNSt3__16vectorIN2sf6SpriteENS_9allocatorIS2_EEE22__construct_one_at_endB8ue170006IJRKS2_EEEvDpOT_, symObjAddr: 0x8584, symBinAddr: 0x10000BEA4, symSize: 0x90 }
  - { offsetInCU: 0x24567, offset: 0x24567, size: 0x8, addend: 0x0, symName: __ZNSt3__16vectorIN2sf6SpriteENS_9allocatorIS2_EEE21__push_back_slow_pathIRKS2_EEvOT_, symObjAddr: 0x8614, symBinAddr: 0x10000BF34, symSize: 0xD8 }
  - { offsetInCU: 0x245C5, offset: 0x245C5, size: 0x8, addend: 0x0, symName: __ZNSt3__117__compressed_pairIPN2sf6SpriteENS_9allocatorIS2_EEE5firstB8ue170006Ev, symObjAddr: 0x86EC, symBinAddr: 0x10000C00C, symSize: 0x24 }
  - { offsetInCU: 0x245EB, offset: 0x245EB, size: 0x8, addend: 0x0, symName: __ZNSt3__122__compressed_pair_elemIPN2sf6SpriteELi0ELb0EE5__getB8ue170006Ev, symObjAddr: 0x8710, symBinAddr: 0x10000C030, symSize: 0x14 }
  - { offsetInCU: 0x2462B, offset: 0x2462B, size: 0x8, addend: 0x0, symName: __ZNSt3__16vectorIN2sf6SpriteENS_9allocatorIS2_EEE21_ConstructTransactionC1B8ue170006ERS5_m, symObjAddr: 0x8724, symBinAddr: 0x10000C044, symSize: 0x3C }
  - { offsetInCU: 0x24673, offset: 0x24673, size: 0x8, addend: 0x0, symName: __ZNSt3__116allocator_traitsINS_9allocatorIN2sf6SpriteEEEE9constructB8ue170006IS3_JRKS3_EvEEvRS4_PT_DpOT0_, symObjAddr: 0x8760, symBinAddr: 0x10000C080, symSize: 0x34 }
  - { offsetInCU: 0x246CA, offset: 0x246CA, size: 0x8, addend: 0x0, symName: __ZNSt3__16vectorIN2sf6SpriteENS_9allocatorIS2_EEE7__allocB8ue170006Ev, symObjAddr: 0x8794, symBinAddr: 0x10000C0B4, symSize: 0x28 }
  - { offsetInCU: 0x246F0, offset: 0x246F0, size: 0x8, addend: 0x0, symName: __ZNSt3__16vectorIN2sf6SpriteENS_9allocatorIS2_EEE21_ConstructTransactionD1B8ue170006Ev, symObjAddr: 0x87D0, symBinAddr: 0x10000C0F0, symSize: 0x2C }
  - { offsetInCU: 0x2471A, offset: 0x2471A, size: 0x8, addend: 0x0, symName: __ZNSt3__16vectorIN2sf6SpriteENS_9allocatorIS2_EEE21_ConstructTransactionC2B8ue170006ERS5_m, symObjAddr: 0x87FC, symBinAddr: 0x10000C11C, symSize: 0x4C }
  - { offsetInCU: 0x24762, offset: 0x24762, size: 0x8, addend: 0x0, symName: __ZNSt3__19allocatorIN2sf6SpriteEE9constructB8ue170006IS2_JRKS2_EEEvPT_DpOT0_, symObjAddr: 0x8848, symBinAddr: 0x10000C168, symSize: 0x30 }
  - { offsetInCU: 0x247B8, offset: 0x247B8, size: 0x8, addend: 0x0, symName: __ZN2sf6SpriteC1ERKS0_, symObjAddr: 0x8878, symBinAddr: 0x10000C198, symSize: 0x34 }
  - { offsetInCU: 0x247ED, offset: 0x247ED, size: 0x8, addend: 0x0, symName: __ZN2sf6SpriteC2ERKS0_, symObjAddr: 0x88AC, symBinAddr: 0x10000C1CC, symSize: 0x88 }
  - { offsetInCU: 0x24822, offset: 0x24822, size: 0x8, addend: 0x0, symName: __ZN2sf8DrawableC2ERKS0_, symObjAddr: 0x8934, symBinAddr: 0x10000C254, symSize: 0x28 }
  - { offsetInCU: 0x2485C, offset: 0x2485C, size: 0x8, addend: 0x0, symName: __ZN2sf13TransformableC2ERKS0_, symObjAddr: 0x895C, symBinAddr: 0x10000C27C, symSize: 0x50 }
  - { offsetInCU: 0x24891, offset: 0x24891, size: 0x8, addend: 0x0, symName: __ZN2sf8DrawableD1Ev, symObjAddr: 0x89AC, symBinAddr: 0x10000C2CC, symSize: 0x14 }
  - { offsetInCU: 0x248BB, offset: 0x248BB, size: 0x8, addend: 0x0, symName: __ZN2sf8DrawableD0Ev, symObjAddr: 0x89C0, symBinAddr: 0x10000C2E0, symSize: 0xC }
  - { offsetInCU: 0x248E5, offset: 0x248E5, size: 0x8, addend: 0x0, symName: __ZNSt3__117__compressed_pairIPN2sf6SpriteENS_9allocatorIS2_EEE6secondB8ue170006Ev, symObjAddr: 0x89CC, symBinAddr: 0x10000C2EC, symSize: 0x24 }
  - { offsetInCU: 0x2490B, offset: 0x2490B, size: 0x8, addend: 0x0, symName: __ZNSt3__122__compressed_pair_elemINS_9allocatorIN2sf6SpriteEEELi1ELb1EE5__getB8ue170006Ev, symObjAddr: 0x89F0, symBinAddr: 0x10000C310, symSize: 0x14 }
  - { offsetInCU: 0x24931, offset: 0x24931, size: 0x8, addend: 0x0, symName: __ZNSt3__16vectorIN2sf6SpriteENS_9allocatorIS2_EEE21_ConstructTransactionD2B8ue170006Ev, symObjAddr: 0x8A04, symBinAddr: 0x10000C324, symSize: 0x20 }
  - { offsetInCU: 0x2495B, offset: 0x2495B, size: 0x8, addend: 0x0, symName: __ZNKSt3__16vectorIN2sf6SpriteENS_9allocatorIS2_EEE11__recommendB8ue170006Em, symObjAddr: 0x8A24, symBinAddr: 0x10000C344, symSize: 0xB4 }
  - { offsetInCU: 0x249B0, offset: 0x249B0, size: 0x8, addend: 0x0, symName: __ZNKSt3__16vectorIN2sf6SpriteENS_9allocatorIS2_EEE4sizeB8ue170006Ev, symObjAddr: 0x8AD8, symBinAddr: 0x10000C3F8, symSize: 0x28 }
  - { offsetInCU: 0x249D6, offset: 0x249D6, size: 0x8, addend: 0x0, symName: __ZNSt3__114__split_bufferIN2sf6SpriteERNS_9allocatorIS2_EEEC1EmmS5_, symObjAddr: 0x8B00, symBinAddr: 0x10000C420, symSize: 0x44 }
  - { offsetInCU: 0x24A2C, offset: 0x24A2C, size: 0x8, addend: 0x0, symName: __ZNSt3__114__split_bufferIN2sf6SpriteERNS_9allocatorIS2_EEED1Ev, symObjAddr: 0x8C54, symBinAddr: 0x10000C574, symSize: 0x2C }
  - { offsetInCU: 0x24A58, offset: 0x24A58, size: 0x8, addend: 0x0, symName: __ZNKSt3__16vectorIN2sf6SpriteENS_9allocatorIS2_EEE8max_sizeEv, symObjAddr: 0x8C80, symBinAddr: 0x10000C5A0, symSize: 0x60 }
  - { offsetInCU: 0x24A80, offset: 0x24A80, size: 0x8, addend: 0x0, symName: __ZNKSt3__16vectorIN2sf6SpriteENS_9allocatorIS2_EEE20__throw_length_errorB8ue170006Ev, symObjAddr: 0x8CE0, symBinAddr: 0x10000C600, symSize: 0x1C }
  - { offsetInCU: 0x24AA6, offset: 0x24AA6, size: 0x8, addend: 0x0, symName: __ZNKSt3__16vectorIN2sf6SpriteENS_9allocatorIS2_EEE8capacityB8ue170006Ev, symObjAddr: 0x8CFC, symBinAddr: 0x10000C61C, symSize: 0x40 }
  - { offsetInCU: 0x24AD6, offset: 0x24AD6, size: 0x8, addend: 0x0, symName: __ZNSt3__116allocator_traitsINS_9allocatorIN2sf6SpriteEEEE8max_sizeB8ue170006IS4_vEEmRKS4_, symObjAddr: 0x8D3C, symBinAddr: 0x10000C65C, symSize: 0x24 }
  - { offsetInCU: 0x24B04, offset: 0x24B04, size: 0x8, addend: 0x0, symName: __ZNKSt3__16vectorIN2sf6SpriteENS_9allocatorIS2_EEE7__allocB8ue170006Ev, symObjAddr: 0x8D60, symBinAddr: 0x10000C680, symSize: 0x28 }
  - { offsetInCU: 0x24B2A, offset: 0x24B2A, size: 0x8, addend: 0x0, symName: __ZNKSt3__19allocatorIN2sf6SpriteEE8max_sizeB8ue170006Ev, symObjAddr: 0x8D88, symBinAddr: 0x10000C6A8, symSize: 0x20 }
  - { offsetInCU: 0x24B50, offset: 0x24B50, size: 0x8, addend: 0x0, symName: __ZNKSt3__117__compressed_pairIPN2sf6SpriteENS_9allocatorIS2_EEE6secondB8ue170006Ev, symObjAddr: 0x8DA8, symBinAddr: 0x10000C6C8, symSize: 0x24 }
  - { offsetInCU: 0x24B76, offset: 0x24B76, size: 0x8, addend: 0x0, symName: __ZNKSt3__122__compressed_pair_elemINS_9allocatorIN2sf6SpriteEEELi1ELb1EE5__getB8ue170006Ev, symObjAddr: 0x8DCC, symBinAddr: 0x10000C6EC, symSize: 0x14 }
  - { offsetInCU: 0x24B9C, offset: 0x24B9C, size: 0x8, addend: 0x0, symName: __ZNKSt3__16vectorIN2sf6SpriteENS_9allocatorIS2_EEE9__end_capB8ue170006Ev, symObjAddr: 0x8DE0, symBinAddr: 0x10000C700, symSize: 0x28 }
  - { offsetInCU: 0x24BC2, offset: 0x24BC2, size: 0x8, addend: 0x0, symName: __ZNKSt3__117__compressed_pairIPN2sf6SpriteENS_9allocatorIS2_EEE5firstB8ue170006Ev, symObjAddr: 0x8E08, symBinAddr: 0x10000C728, symSize: 0x24 }
  - { offsetInCU: 0x24BE8, offset: 0x24BE8, size: 0x8, addend: 0x0, symName: __ZNKSt3__122__compressed_pair_elemIPN2sf6SpriteELi0ELb0EE5__getB8ue170006Ev, symObjAddr: 0x8E2C, symBinAddr: 0x10000C74C, symSize: 0x14 }
  - { offsetInCU: 0x24C0E, offset: 0x24C0E, size: 0x8, addend: 0x0, symName: __ZNSt3__114__split_bufferIN2sf6SpriteERNS_9allocatorIS2_EEEC2EmmS5_, symObjAddr: 0x8E40, symBinAddr: 0x10000C760, symSize: 0xE0 }
  - { offsetInCU: 0x24C81, offset: 0x24C81, size: 0x8, addend: 0x0, symName: __ZNSt3__117__compressed_pairIPN2sf6SpriteERNS_9allocatorIS2_EEEC1B8ue170006IDnS6_EEOT_OT0_, symObjAddr: 0x8F20, symBinAddr: 0x10000C840, symSize: 0x3C }
  - { offsetInCU: 0x24CD9, offset: 0x24CD9, size: 0x8, addend: 0x0, symName: __ZNSt3__114__split_bufferIN2sf6SpriteERNS_9allocatorIS2_EEE7__allocB8ue170006Ev, symObjAddr: 0x8F9C, symBinAddr: 0x10000C8BC, symSize: 0x28 }
  - { offsetInCU: 0x24CFF, offset: 0x24CFF, size: 0x8, addend: 0x0, symName: __ZNSt3__114__split_bufferIN2sf6SpriteERNS_9allocatorIS2_EEE9__end_capB8ue170006Ev, symObjAddr: 0x8FC4, symBinAddr: 0x10000C8E4, symSize: 0x28 }
  - { offsetInCU: 0x24D25, offset: 0x24D25, size: 0x8, addend: 0x0, symName: __ZNSt3__117__compressed_pairIPN2sf6SpriteERNS_9allocatorIS2_EEEC2B8ue170006IDnS6_EEOT_OT0_, symObjAddr: 0x8FEC, symBinAddr: 0x10000C90C, symSize: 0x48 }
  - { offsetInCU: 0x24D7D, offset: 0x24D7D, size: 0x8, addend: 0x0, symName: __ZNSt3__122__compressed_pair_elemIRNS_9allocatorIN2sf6SpriteEEELi1ELb0EEC2B8ue170006IS5_vEEOT_, symObjAddr: 0x9034, symBinAddr: 0x10000C954, symSize: 0x20 }
  - { offsetInCU: 0x24DBF, offset: 0x24DBF, size: 0x8, addend: 0x0, symName: __ZNSt3__19allocatorIN2sf6SpriteEE8allocateB8ue170006Em, symObjAddr: 0x9054, symBinAddr: 0x10000C974, symSize: 0x5C }
  - { offsetInCU: 0x24DF3, offset: 0x24DF3, size: 0x8, addend: 0x0, symName: __ZNSt3__117__compressed_pairIPN2sf6SpriteERNS_9allocatorIS2_EEE6secondB8ue170006Ev, symObjAddr: 0x90B0, symBinAddr: 0x10000C9D0, symSize: 0x28 }
  - { offsetInCU: 0x24E19, offset: 0x24E19, size: 0x8, addend: 0x0, symName: __ZNSt3__122__compressed_pair_elemIRNS_9allocatorIN2sf6SpriteEEELi1ELb0EE5__getB8ue170006Ev, symObjAddr: 0x90D8, symBinAddr: 0x10000C9F8, symSize: 0x18 }
  - { offsetInCU: 0x24E3F, offset: 0x24E3F, size: 0x8, addend: 0x0, symName: __ZNSt3__117__compressed_pairIPN2sf6SpriteERNS_9allocatorIS2_EEE5firstB8ue170006Ev, symObjAddr: 0x90F0, symBinAddr: 0x10000CA10, symSize: 0x24 }
  - { offsetInCU: 0x24E65, offset: 0x24E65, size: 0x8, addend: 0x0, symName: __ZNKSt3__16vectorIN2sf6SpriteENS_9allocatorIS2_EEE17__annotate_deleteB8ue170006Ev, symObjAddr: 0x9114, symBinAddr: 0x10000CA34, symSize: 0xD4 }
  - { offsetInCU: 0x24E8B, offset: 0x24E8B, size: 0x8, addend: 0x0, symName: __ZNSt3__116reverse_iteratorIPN2sf6SpriteEEC1B8ue170006ES3_, symObjAddr: 0x9314, symBinAddr: 0x10000CC34, symSize: 0x34 }
  - { offsetInCU: 0x24EC3, offset: 0x24EC3, size: 0x8, addend: 0x0, symName: __ZNKSt3__116reverse_iteratorIPN2sf6SpriteEE4baseB8ue170006Ev, symObjAddr: 0x9348, symBinAddr: 0x10000CC68, symSize: 0x18 }
  - { offsetInCU: 0x24EE9, offset: 0x24EE9, size: 0x8, addend: 0x0, symName: __ZNKSt3__16vectorIN2sf6SpriteENS_9allocatorIS2_EEE14__annotate_newB8ue170006Em, symObjAddr: 0x939C, symBinAddr: 0x10000CCBC, symSize: 0xC8 }
  - { offsetInCU: 0x24F1E, offset: 0x24F1E, size: 0x8, addend: 0x0, symName: __ZNKSt3__16vectorIN2sf6SpriteENS_9allocatorIS2_EEE31__annotate_contiguous_containerB8ue170006EPKvS7_S7_S7_, symObjAddr: 0x9464, symBinAddr: 0x10000CD84, symSize: 0x20 }
  - { offsetInCU: 0x24F70, offset: 0x24F70, size: 0x8, addend: 0x0, symName: __ZNKSt3__16vectorIN2sf6SpriteENS_9allocatorIS2_EEE4dataB8ue170006Ev, symObjAddr: 0x9484, symBinAddr: 0x10000CDA4, symSize: 0x28 }
  - { offsetInCU: 0x24F96, offset: 0x24F96, size: 0x8, addend: 0x0, symName: __ZNSt3__129_AllocatorDestroyRangeReverseINS_9allocatorIN2sf6SpriteEEENS_16reverse_iteratorIPS3_EEEC1B8ue170006ERS4_RS7_SA_, symObjAddr: 0x94F8, symBinAddr: 0x10000CE18, symSize: 0x44 }
  - { offsetInCU: 0x24FF3, offset: 0x24FF3, size: 0x8, addend: 0x0, symName: __ZNSt3__116allocator_traitsINS_9allocatorIN2sf6SpriteEEEE9constructB8ue170006IS3_JS3_EvEEvRS4_PT_DpOT0_, symObjAddr: 0x9584, symBinAddr: 0x10000CEA4, symSize: 0x34 }
  - { offsetInCU: 0x2504A, offset: 0x2504A, size: 0x8, addend: 0x0, symName: __ZNKSt3__116reverse_iteratorIPN2sf6SpriteEEdeB8ue170006Ev, symObjAddr: 0x95DC, symBinAddr: 0x10000CEFC, symSize: 0x28 }
  - { offsetInCU: 0x2507E, offset: 0x2507E, size: 0x8, addend: 0x0, symName: __ZNSt3__116reverse_iteratorIPN2sf6SpriteEEppB8ue170006Ev, symObjAddr: 0x9604, symBinAddr: 0x10000CF24, symSize: 0x20 }
  - { offsetInCU: 0x250A4, offset: 0x250A4, size: 0x8, addend: 0x0, symName: __ZNSt3__128__exception_guard_exceptionsINS_29_AllocatorDestroyRangeReverseINS_9allocatorIN2sf6SpriteEEENS_16reverse_iteratorIPS4_EEEEE10__completeB8ue170006Ev, symObjAddr: 0x9624, symBinAddr: 0x10000CF44, symSize: 0x1C }
  - { offsetInCU: 0x250CA, offset: 0x250CA, size: 0x8, addend: 0x0, symName: __ZNSt3__128__exception_guard_exceptionsINS_29_AllocatorDestroyRangeReverseINS_9allocatorIN2sf6SpriteEEENS_16reverse_iteratorIPS4_EEEEED1B8ue170006Ev, symObjAddr: 0x9640, symBinAddr: 0x10000CF60, symSize: 0x2C }
  - { offsetInCU: 0x250F4, offset: 0x250F4, size: 0x8, addend: 0x0, symName: __ZNSt3__128__exception_guard_exceptionsINS_29_AllocatorDestroyRangeReverseINS_9allocatorIN2sf6SpriteEEENS_16reverse_iteratorIPS4_EEEEEC1B8ue170006ES9_, symObjAddr: 0x966C, symBinAddr: 0x10000CF8C, symSize: 0x34 }
  - { offsetInCU: 0x2512D, offset: 0x2512D, size: 0x8, addend: 0x0, symName: __ZNSt3__128__exception_guard_exceptionsINS_29_AllocatorDestroyRangeReverseINS_9allocatorIN2sf6SpriteEEENS_16reverse_iteratorIPS4_EEEEEC2B8ue170006ES9_, symObjAddr: 0x96A0, symBinAddr: 0x10000CFC0, symSize: 0x30 }
  - { offsetInCU: 0x25166, offset: 0x25166, size: 0x8, addend: 0x0, symName: __ZNSt3__129_AllocatorDestroyRangeReverseINS_9allocatorIN2sf6SpriteEEENS_16reverse_iteratorIPS3_EEEC2B8ue170006ERS4_RS7_SA_, symObjAddr: 0x96D0, symBinAddr: 0x10000CFF0, symSize: 0x38 }
  - { offsetInCU: 0x251BD, offset: 0x251BD, size: 0x8, addend: 0x0, symName: __ZNSt3__19allocatorIN2sf6SpriteEE9constructB8ue170006IS2_JS2_EEEvPT_DpOT0_, symObjAddr: 0x9708, symBinAddr: 0x10000D028, symSize: 0x30 }
  - { offsetInCU: 0x25213, offset: 0x25213, size: 0x8, addend: 0x0, symName: __ZN2sf6SpriteC1EOS0_, symObjAddr: 0x9738, symBinAddr: 0x10000D058, symSize: 0x34 }
  - { offsetInCU: 0x25248, offset: 0x25248, size: 0x8, addend: 0x0, symName: __ZN2sf6SpriteC2EOS0_, symObjAddr: 0x976C, symBinAddr: 0x10000D08C, symSize: 0x88 }
  - { offsetInCU: 0x25282, offset: 0x25282, size: 0x8, addend: 0x0, symName: __ZNSt3__119__to_address_helperINS_16reverse_iteratorIPN2sf6SpriteEEEvE6__callB8ue170006ERKS5_, symObjAddr: 0x97F4, symBinAddr: 0x10000D114, symSize: 0x38 }
  - { offsetInCU: 0x252A5, offset: 0x252A5, size: 0x8, addend: 0x0, symName: __ZNKSt3__116reverse_iteratorIPN2sf6SpriteEEptB8ue170006Ev, symObjAddr: 0x982C, symBinAddr: 0x10000D14C, symSize: 0x24 }
  - { offsetInCU: 0x252CB, offset: 0x252CB, size: 0x8, addend: 0x0, symName: __ZNSt3__128__exception_guard_exceptionsINS_29_AllocatorDestroyRangeReverseINS_9allocatorIN2sf6SpriteEEENS_16reverse_iteratorIPS4_EEEEED2B8ue170006Ev, symObjAddr: 0x9850, symBinAddr: 0x10000D170, symSize: 0x50 }
  - { offsetInCU: 0x252F5, offset: 0x252F5, size: 0x8, addend: 0x0, symName: __ZNKSt3__129_AllocatorDestroyRangeReverseINS_9allocatorIN2sf6SpriteEEENS_16reverse_iteratorIPS3_EEEclB8ue170006Ev, symObjAddr: 0x98A0, symBinAddr: 0x10000D1C0, symSize: 0xB4 }
  - { offsetInCU: 0x2531C, offset: 0x2531C, size: 0x8, addend: 0x0, symName: __ZNSt3__116reverse_iteratorINS0_IPN2sf6SpriteEEEEC1B8ue170006ES4_, symObjAddr: 0x99C4, symBinAddr: 0x10000D2E4, symSize: 0x3C }
  - { offsetInCU: 0x25354, offset: 0x25354, size: 0x8, addend: 0x0, symName: __ZNSt3__116allocator_traitsINS_9allocatorIN2sf6SpriteEEEE7destroyB8ue170006IS3_vEEvRS4_PT_, symObjAddr: 0x9A60, symBinAddr: 0x10000D380, symSize: 0x2C }
  - { offsetInCU: 0x25391, offset: 0x25391, size: 0x8, addend: 0x0, symName: __ZNSt3__116reverse_iteratorINS0_IPN2sf6SpriteEEEEppB8ue170006Ev, symObjAddr: 0x9AB0, symBinAddr: 0x10000D3D0, symSize: 0x30 }
  - { offsetInCU: 0x253B7, offset: 0x253B7, size: 0x8, addend: 0x0, symName: __ZNKSt3__116reverse_iteratorINS0_IPN2sf6SpriteEEEE4baseB8ue170006Ev, symObjAddr: 0x9AE0, symBinAddr: 0x10000D400, symSize: 0x24 }
  - { offsetInCU: 0x253DD, offset: 0x253DD, size: 0x8, addend: 0x0, symName: __ZNSt3__19allocatorIN2sf6SpriteEE7destroyB8ue170006EPS2_, symObjAddr: 0x9B04, symBinAddr: 0x10000D424, symSize: 0x30 }
  - { offsetInCU: 0x25416, offset: 0x25416, size: 0x8, addend: 0x0, symName: __ZNSt3__119__to_address_helperINS_16reverse_iteratorINS1_IPN2sf6SpriteEEEEEvE6__callB8ue170006ERKS6_, symObjAddr: 0x9B34, symBinAddr: 0x10000D454, symSize: 0x38 }
  - { offsetInCU: 0x25439, offset: 0x25439, size: 0x8, addend: 0x0, symName: __ZNKSt3__116reverse_iteratorINS0_IPN2sf6SpriteEEEEptB8ue170006Ev, symObjAddr: 0x9B6C, symBinAddr: 0x10000D48C, symSize: 0x24 }
  - { offsetInCU: 0x2545F, offset: 0x2545F, size: 0x8, addend: 0x0, symName: __ZNKSt3__116reverse_iteratorINS0_IPN2sf6SpriteEEEEdeB8ue170006Ev, symObjAddr: 0x9B90, symBinAddr: 0x10000D4B0, symSize: 0x34 }
  - { offsetInCU: 0x25493, offset: 0x25493, size: 0x8, addend: 0x0, symName: __ZNSt3__116reverse_iteratorIPN2sf6SpriteEEmmB8ue170006Ev, symObjAddr: 0x9BC4, symBinAddr: 0x10000D4E4, symSize: 0x20 }
  - { offsetInCU: 0x254B9, offset: 0x254B9, size: 0x8, addend: 0x0, symName: __ZNSt3__116reverse_iteratorINS0_IPN2sf6SpriteEEEEC2B8ue170006ES4_, symObjAddr: 0x9BE4, symBinAddr: 0x10000D504, symSize: 0x2C }
  - { offsetInCU: 0x254F1, offset: 0x254F1, size: 0x8, addend: 0x0, symName: __ZNSt3__116reverse_iteratorIPN2sf6SpriteEEC2B8ue170006ES3_, symObjAddr: 0x9C10, symBinAddr: 0x10000D530, symSize: 0x28 }
  - { offsetInCU: 0x25529, offset: 0x25529, size: 0x8, addend: 0x0, symName: __ZNSt3__114__split_bufferIN2sf6SpriteERNS_9allocatorIS2_EEED2Ev, symObjAddr: 0x9C38, symBinAddr: 0x10000D558, symSize: 0x8C }
  - { offsetInCU: 0x25555, offset: 0x25555, size: 0x8, addend: 0x0, symName: __ZNSt3__114__split_bufferIN2sf6SpriteERNS_9allocatorIS2_EEE5clearB8ue170006Ev, symObjAddr: 0x9CC4, symBinAddr: 0x10000D5E4, symSize: 0x28 }
  - { offsetInCU: 0x2557B, offset: 0x2557B, size: 0x8, addend: 0x0, symName: __ZNSt3__116allocator_traitsINS_9allocatorIN2sf6SpriteEEEE10deallocateB8ue170006ERS4_PS3_m, symObjAddr: 0x9CEC, symBinAddr: 0x10000D60C, symSize: 0x34 }
  - { offsetInCU: 0x255BD, offset: 0x255BD, size: 0x8, addend: 0x0, symName: __ZNKSt3__114__split_bufferIN2sf6SpriteERNS_9allocatorIS2_EEE8capacityB8ue170006Ev, symObjAddr: 0x9D20, symBinAddr: 0x10000D640, symSize: 0x40 }
  - { offsetInCU: 0x255E3, offset: 0x255E3, size: 0x8, addend: 0x0, symName: __ZNSt3__114__split_bufferIN2sf6SpriteERNS_9allocatorIS2_EEE17__destruct_at_endB8ue170006EPS2_, symObjAddr: 0x9D60, symBinAddr: 0x10000D680, symSize: 0x2C }
  - { offsetInCU: 0x25617, offset: 0x25617, size: 0x8, addend: 0x0, symName: __ZNSt3__114__split_bufferIN2sf6SpriteERNS_9allocatorIS2_EEE17__destruct_at_endB8ue170006EPS2_NS_17integral_constantIbLb0EEE, symObjAddr: 0x9D8C, symBinAddr: 0x10000D6AC, symSize: 0x80 }
  - { offsetInCU: 0x25658, offset: 0x25658, size: 0x8, addend: 0x0, symName: __ZNSt3__19allocatorIN2sf6SpriteEE10deallocateB8ue170006EPS2_m, symObjAddr: 0x9E0C, symBinAddr: 0x10000D72C, symSize: 0x44 }
  - { offsetInCU: 0x2569A, offset: 0x2569A, size: 0x8, addend: 0x0, symName: __ZNKSt3__114__split_bufferIN2sf6SpriteERNS_9allocatorIS2_EEE9__end_capB8ue170006Ev, symObjAddr: 0x9E50, symBinAddr: 0x10000D770, symSize: 0x28 }
  - { offsetInCU: 0x256C0, offset: 0x256C0, size: 0x8, addend: 0x0, symName: __ZNKSt3__117__compressed_pairIPN2sf6SpriteERNS_9allocatorIS2_EEE5firstB8ue170006Ev, symObjAddr: 0x9E78, symBinAddr: 0x10000D798, symSize: 0x24 }
  - { offsetInCU: 0x256E6, offset: 0x256E6, size: 0x8, addend: 0x0, symName: __ZN2sf6SpriteD2Ev, symObjAddr: 0x9E9C, symBinAddr: 0x10000D7BC, symSize: 0x38 }
  - { offsetInCU: 0x25712, offset: 0x25712, size: 0x8, addend: 0x0, symName: __ZThn8_N2sf6SpriteD1Ev, symObjAddr: 0x9ED4, symBinAddr: 0x10000D7F4, symSize: 0x1C }
  - { offsetInCU: 0x25728, offset: 0x25728, size: 0x8, addend: 0x0, symName: __ZN2sf8DrawableD2Ev, symObjAddr: 0x9EF0, symBinAddr: 0x10000D810, symSize: 0x14 }
  - { offsetInCU: 0x25752, offset: 0x25752, size: 0x8, addend: 0x0, symName: __ZN2sf15ContextSettingsC2Ejjjjjjb, symObjAddr: 0x9F04, symBinAddr: 0x10000D824, symSize: 0x74 }
  - { offsetInCU: 0x257DE, offset: 0x257DE, size: 0x8, addend: 0x0, symName: __ZN2sf6StringD2Ev, symObjAddr: 0x9F78, symBinAddr: 0x10000D898, symSize: 0x2C }
  - { offsetInCU: 0x2580A, offset: 0x2580A, size: 0x8, addend: 0x0, symName: __ZNSt3__112basic_stringIjNS_11char_traitsIjEENS_9allocatorIjEEED1Ev, symObjAddr: 0x9FA4, symBinAddr: 0x10000D8C4, symSize: 0x2C }
  - { offsetInCU: 0x25834, offset: 0x25834, size: 0x8, addend: 0x0, symName: __ZNSt3__112basic_stringIjNS_11char_traitsIjEENS_9allocatorIjEEED2Ev, symObjAddr: 0x9FD0, symBinAddr: 0x10000D8F0, symSize: 0x74 }
  - { offsetInCU: 0x2585E, offset: 0x2585E, size: 0x8, addend: 0x0, symName: __ZNKSt3__112basic_stringIjNS_11char_traitsIjEENS_9allocatorIjEEE9__is_longB8ue170006Ev, symObjAddr: 0xA044, symBinAddr: 0x10000D964, symSize: 0x38 }
  - { offsetInCU: 0x25884, offset: 0x25884, size: 0x8, addend: 0x0, symName: __ZNSt3__116allocator_traitsINS_9allocatorIjEEE10deallocateB8ue170006ERS2_Pjm, symObjAddr: 0xA07C, symBinAddr: 0x10000D99C, symSize: 0x34 }
  - { offsetInCU: 0x258C6, offset: 0x258C6, size: 0x8, addend: 0x0, symName: __ZNSt3__112basic_stringIjNS_11char_traitsIjEENS_9allocatorIjEEE7__allocB8ue170006Ev, symObjAddr: 0xA0B0, symBinAddr: 0x10000D9D0, symSize: 0x24 }
  - { offsetInCU: 0x258EC, offset: 0x258EC, size: 0x8, addend: 0x0, symName: __ZNSt3__112basic_stringIjNS_11char_traitsIjEENS_9allocatorIjEEE18__get_long_pointerB8ue170006Ev, symObjAddr: 0xA0D4, symBinAddr: 0x10000D9F4, symSize: 0x28 }
  - { offsetInCU: 0x25912, offset: 0x25912, size: 0x8, addend: 0x0, symName: __ZNKSt3__112basic_stringIjNS_11char_traitsIjEENS_9allocatorIjEEE14__get_long_capB8ue170006Ev, symObjAddr: 0xA0FC, symBinAddr: 0x10000DA1C, symSize: 0x30 }
  - { offsetInCU: 0x25938, offset: 0x25938, size: 0x8, addend: 0x0, symName: __ZNKSt3__117__compressed_pairINS_12basic_stringIjNS_11char_traitsIjEENS_9allocatorIjEEE5__repES5_E5firstB8ue170006Ev, symObjAddr: 0xA12C, symBinAddr: 0x10000DA4C, symSize: 0x24 }
  - { offsetInCU: 0x2595E, offset: 0x2595E, size: 0x8, addend: 0x0, symName: __ZNKSt3__122__compressed_pair_elemINS_12basic_stringIjNS_11char_traitsIjEENS_9allocatorIjEEE5__repELi0ELb0EE5__getB8ue170006Ev, symObjAddr: 0xA150, symBinAddr: 0x10000DA70, symSize: 0x14 }
  - { offsetInCU: 0x25984, offset: 0x25984, size: 0x8, addend: 0x0, symName: __ZNSt3__19allocatorIjE10deallocateB8ue170006EPjm, symObjAddr: 0xA164, symBinAddr: 0x10000DA84, symSize: 0x40 }
  - { offsetInCU: 0x259C6, offset: 0x259C6, size: 0x8, addend: 0x0, symName: __ZNSt3__117__compressed_pairINS_12basic_stringIjNS_11char_traitsIjEENS_9allocatorIjEEE5__repES5_E6secondB8ue170006Ev, symObjAddr: 0xA1A4, symBinAddr: 0x10000DAC4, symSize: 0x24 }
  - { offsetInCU: 0x259EC, offset: 0x259EC, size: 0x8, addend: 0x0, symName: __ZNSt3__122__compressed_pair_elemINS_9allocatorIjEELi1ELb1EE5__getB8ue170006Ev, symObjAddr: 0xA1C8, symBinAddr: 0x10000DAE8, symSize: 0x14 }
  - { offsetInCU: 0x25A12, offset: 0x25A12, size: 0x8, addend: 0x0, symName: __ZNSt3__117__compressed_pairINS_12basic_stringIjNS_11char_traitsIjEENS_9allocatorIjEEE5__repES5_E5firstB8ue170006Ev, symObjAddr: 0xA1DC, symBinAddr: 0x10000DAFC, symSize: 0x24 }
  - { offsetInCU: 0x25A38, offset: 0x25A38, size: 0x8, addend: 0x0, symName: __ZNSt3__122__compressed_pair_elemINS_12basic_stringIjNS_11char_traitsIjEENS_9allocatorIjEEE5__repELi0ELb0EE5__getB8ue170006Ev, symObjAddr: 0xA200, symBinAddr: 0x10000DB20, symSize: 0x14 }
  - { offsetInCU: 0x25A5E, offset: 0x25A5E, size: 0x8, addend: 0x0, symName: __ZNSt3__16vectorIN2sf6SpriteENS_9allocatorIS2_EEED2B8ue170006Ev, symObjAddr: 0xA214, symBinAddr: 0x10000DB34, symSize: 0x44 }
  - { offsetInCU: 0x25A88, offset: 0x25A88, size: 0x8, addend: 0x0, symName: __ZNSt3__16vectorIN2sf6SpriteENS_9allocatorIS2_EEE16__destroy_vectorC1B8ue170006ERS5_, symObjAddr: 0xA258, symBinAddr: 0x10000DB78, symSize: 0x34 }
  - { offsetInCU: 0x25AC1, offset: 0x25AC1, size: 0x8, addend: 0x0, symName: __ZNSt3__16vectorIN2sf6SpriteENS_9allocatorIS2_EEE16__destroy_vectorclB8ue170006Ev, symObjAddr: 0xA28C, symBinAddr: 0x10000DBAC, symSize: 0x90 }
  - { offsetInCU: 0x25AE7, offset: 0x25AE7, size: 0x8, addend: 0x0, symName: __ZNSt3__16vectorIN2sf6SpriteENS_9allocatorIS2_EEE16__destroy_vectorC2B8ue170006ERS5_, symObjAddr: 0xA31C, symBinAddr: 0x10000DC3C, symSize: 0x20 }
  - { offsetInCU: 0x25B20, offset: 0x25B20, size: 0x8, addend: 0x0, symName: __ZNSt3__16vectorIN2sf6SpriteENS_9allocatorIS2_EEE7__clearB8ue170006Ev, symObjAddr: 0xA33C, symBinAddr: 0x10000DC5C, symSize: 0x28 }
  - { offsetInCU: 0x25B46, offset: 0x25B46, size: 0x8, addend: 0x0, symName: __ZNSt3__16vectorIN2sf6SpriteENS_9allocatorIS2_EEE22__base_destruct_at_endB8ue170006EPS2_, symObjAddr: 0xA364, symBinAddr: 0x10000DC84, symSize: 0x8C }
  - { offsetInCU: 0x25B8A, offset: 0x25B8A, size: 0x8, addend: 0x0, symName: __ZNSt3__16vectorIN2sf7TextureENS_9allocatorIS2_EEED2B8ue170006Ev, symObjAddr: 0xA3F0, symBinAddr: 0x10000DD10, symSize: 0x44 }
  - { offsetInCU: 0x25BB4, offset: 0x25BB4, size: 0x8, addend: 0x0, symName: __ZNSt3__16vectorIN2sf7TextureENS_9allocatorIS2_EEE16__destroy_vectorC1B8ue170006ERS5_, symObjAddr: 0xA434, symBinAddr: 0x10000DD54, symSize: 0x34 }
  - { offsetInCU: 0x25BED, offset: 0x25BED, size: 0x8, addend: 0x0, symName: __ZNSt3__16vectorIN2sf7TextureENS_9allocatorIS2_EEE16__destroy_vectorclB8ue170006Ev, symObjAddr: 0xA468, symBinAddr: 0x10000DD88, symSize: 0x90 }
  - { offsetInCU: 0x25C13, offset: 0x25C13, size: 0x8, addend: 0x0, symName: __ZNSt3__16vectorIN2sf7TextureENS_9allocatorIS2_EEE16__destroy_vectorC2B8ue170006ERS5_, symObjAddr: 0xA4F8, symBinAddr: 0x10000DE18, symSize: 0x20 }
  - { offsetInCU: 0x25C4C, offset: 0x25C4C, size: 0x8, addend: 0x0, symName: __ZNSt3__16vectorIN2sf7TextureENS_9allocatorIS2_EEE7__clearB8ue170006Ev, symObjAddr: 0xA518, symBinAddr: 0x10000DE38, symSize: 0x28 }
  - { offsetInCU: 0x25C72, offset: 0x25C72, size: 0x8, addend: 0x0, symName: __ZNSt3__16vectorIN2sf7TextureENS_9allocatorIS2_EEE22__base_destruct_at_endB8ue170006EPS2_, symObjAddr: 0xA540, symBinAddr: 0x10000DE60, symSize: 0x8C }
  - { offsetInCU: 0x25CB6, offset: 0x25CB6, size: 0x8, addend: 0x0, symName: __ZNSt3__16vectorINS_12basic_stringIcNS_11char_traitsIcEENS_9allocatorIcEEEENS4_IS6_EEED2B8ue170006Ev, symObjAddr: 0xA5CC, symBinAddr: 0x10000DEEC, symSize: 0x40 }
  - { offsetInCU: 0x25CE0, offset: 0x25CE0, size: 0x8, addend: 0x0, symName: __ZNSt3__16vectorIN2sf6SpriteENS_9allocatorIS2_EEEixB8ue170006Em, symObjAddr: 0xA60C, symBinAddr: 0x10000DF2C, symSize: 0x2C }
  - { offsetInCU: 0x25D17, offset: 0x25D17, size: 0x8, addend: 0x0, symName: __ZN14MinesweeperGUI18getCellCoordinatesERiS0_ii, symObjAddr: 0xA638, symBinAddr: 0x10000DF58, symSize: 0xF8 }
  - { offsetInCU: 0x25DBB, offset: 0x25DBB, size: 0x8, addend: 0x0, symName: __ZN11Minesweeper22countNeighbouringFlagsEii, symObjAddr: 0xA730, symBinAddr: 0x10000E050, symSize: 0x158 }
  - { offsetInCU: 0x25E6D, offset: 0x25E6D, size: 0x8, addend: 0x0, symName: __ZN11Minesweeper5chordEii, symObjAddr: 0xA888, symBinAddr: 0x10000E1A8, symSize: 0x19C }
  - { offsetInCU: 0x25F11, offset: 0x25F11, size: 0x8, addend: 0x0, symName: __ZN11Minesweeper15updateUserBoardEii, symObjAddr: 0xAA24, symBinAddr: 0x10000E344, symSize: 0x1DC }
  - { offsetInCU: 0x25FDA, offset: 0x25FDA, size: 0x8, addend: 0x0, symName: __ZNSt3__16chrono8durationIxNS_5ratioILl1ELl1EEEE4zeroB8ue170006Ev, symObjAddr: 0xAC30, symBinAddr: 0x10000E550, symSize: 0x3C }
  - { offsetInCU: 0x25FEE, offset: 0x25FEE, size: 0x8, addend: 0x0, symName: __ZNSt3__16chrono8durationIxNS_5ratioILl1ELl1000000000EEEEppB8ue170006Ev, symObjAddr: 0xAD04, symBinAddr: 0x10000E624, symSize: 0x20 }
  - { offsetInCU: 0x26014, offset: 0x26014, size: 0x8, addend: 0x0, symName: __ZNSt3__16chrono8durationIxNS_5ratioILl1ELl1000000000EEEE3maxB8ue170006Ev, symObjAddr: 0xAD24, symBinAddr: 0x10000E644, symSize: 0x3C }
  - { offsetInCU: 0x26033, offset: 0x26033, size: 0x8, addend: 0x0, symName: __ZNKSt3__16chrono13__duration_ltINS0_8durationIxNS_5ratioILl1ELl1EEEEES5_EclB8ue170006ERKS5_S8_, symObjAddr: 0xAD94, symBinAddr: 0x10000E6B4, symSize: 0x4C }
  - { offsetInCU: 0x26077, offset: 0x26077, size: 0x8, addend: 0x0, symName: __ZNKSt3__16chrono8durationIxNS_5ratioILl1ELl1EEEE5countB8ue170006Ev, symObjAddr: 0xADE0, symBinAddr: 0x10000E700, symSize: 0x18 }
  - { offsetInCU: 0x2609D, offset: 0x2609D, size: 0x8, addend: 0x0, symName: __ZNSt3__16chrono15duration_valuesIxE4zeroB8ue170006Ev, symObjAddr: 0xADF8, symBinAddr: 0x10000E718, symSize: 0x8 }
  - { offsetInCU: 0x260BB, offset: 0x260BB, size: 0x8, addend: 0x0, symName: __ZNSt3__16chrono8durationIxNS_5ratioILl1ELl1EEEEC1B8ue170006IxEERKT_PNS_9enable_ifIXaasr14is_convertibleIS8_xEE5valueooL_ZNS_17integral_constantIbLb0EE5valueEEntsr23treat_as_floating_pointIS6_EE5valueEvE4typeE, symObjAddr: 0xAE00, symBinAddr: 0x10000E720, symSize: 0x3C }
  - { offsetInCU: 0x26107, offset: 0x26107, size: 0x8, addend: 0x0, symName: __ZNSt3__16chrono8durationIxNS_5ratioILl1ELl1EEEEC2B8ue170006IxEERKT_PNS_9enable_ifIXaasr14is_convertibleIS8_xEE5valueooL_ZNS_17integral_constantIbLb0EE5valueEEntsr23treat_as_floating_pointIS6_EE5valueEvE4typeE, symObjAddr: 0xAE3C, symBinAddr: 0x10000E75C, symSize: 0x28 }
  - { offsetInCU: 0x26153, offset: 0x26153, size: 0x8, addend: 0x0, symName: __ZNSt3__16chrono8durationIeNS_5ratioILl1ELl1EEEEC1B8ue170006IxS3_EERKNS1_IT_T0_EEPNS_9enable_ifIXaasr13__no_overflowIS7_S3_EE5valueooL_ZNS_17integral_constantIbLb1EE5valueEEaaeqsr13__no_overflowIS7_S3_E4typeE3denLi1Entsr23treat_as_floating_pointIS6_EE5valueEvE4typeE, symObjAddr: 0xAED0, symBinAddr: 0x10000E7F0, symSize: 0x3C }
  - { offsetInCU: 0x261A9, offset: 0x261A9, size: 0x8, addend: 0x0, symName: __ZNKSt3__16chrono8durationIeNS_5ratioILl1ELl1EEEE5countB8ue170006Ev, symObjAddr: 0xAF0C, symBinAddr: 0x10000E82C, symSize: 0x18 }
  - { offsetInCU: 0x261CF, offset: 0x261CF, size: 0x8, addend: 0x0, symName: __ZNSt3__16chrono8durationIeNS_5ratioILl1ELl1EEEEC2B8ue170006IxS3_EERKNS1_IT_T0_EEPNS_9enable_ifIXaasr13__no_overflowIS7_S3_EE5valueooL_ZNS_17integral_constantIbLb1EE5valueEEaaeqsr13__no_overflowIS7_S3_E4typeE3denLi1Entsr23treat_as_floating_pointIS6_EE5valueEvE4typeE, symObjAddr: 0xAF24, symBinAddr: 0x10000E844, symSize: 0x48 }
  - { offsetInCU: 0x26230, offset: 0x26230, size: 0x8, addend: 0x0, symName: __ZNKSt3__16chrono15__duration_castINS0_8durationIxNS_5ratioILl1ELl1EEEEENS2_IeS4_EES4_Lb1ELb1EEclB8ue170006ERKS5_, symObjAddr: 0xAF9C, symBinAddr: 0x10000E8BC, symSize: 0x44 }
  - { offsetInCU: 0x2626E, offset: 0x2626E, size: 0x8, addend: 0x0, symName: __ZNSt3__16chrono8durationIeNS_5ratioILl1ELl1EEEEC1B8ue170006IeEERKT_PNS_9enable_ifIXaasr14is_convertibleIS8_eEE5valueooL_ZNS_17integral_constantIbLb1EE5valueEEntsr23treat_as_floating_pointIS6_EE5valueEvE4typeE, symObjAddr: 0xAFE0, symBinAddr: 0x10000E900, symSize: 0x3C }
  - { offsetInCU: 0x262BA, offset: 0x262BA, size: 0x8, addend: 0x0, symName: __ZNSt3__16chrono8durationIeNS_5ratioILl1ELl1EEEEC2B8ue170006IeEERKT_PNS_9enable_ifIXaasr14is_convertibleIS8_eEE5valueooL_ZNS_17integral_constantIbLb1EE5valueEEntsr23treat_as_floating_pointIS6_EE5valueEvE4typeE, symObjAddr: 0xB01C, symBinAddr: 0x10000E93C, symSize: 0x28 }
  - { offsetInCU: 0x26306, offset: 0x26306, size: 0x8, addend: 0x0, symName: __ZNSt3__16chrono8durationIxNS_5ratioILl1ELl1000000000EEEEC1B8ue170006IxEERKT_PNS_9enable_ifIXaasr14is_convertibleIS8_xEE5valueooL_ZNS_17integral_constantIbLb0EE5valueEEntsr23treat_as_floating_pointIS6_EE5valueEvE4typeE, symObjAddr: 0xB090, symBinAddr: 0x10000E9B0, symSize: 0x3C }
  - { offsetInCU: 0x26352, offset: 0x26352, size: 0x8, addend: 0x0, symName: __ZNSt3__16chrono8durationIxNS_5ratioILl1ELl1000000000EEEEC2B8ue170006IxEERKT_PNS_9enable_ifIXaasr14is_convertibleIS8_xEE5valueooL_ZNS_17integral_constantIbLb0EE5valueEEntsr23treat_as_floating_pointIS6_EE5valueEvE4typeE, symObjAddr: 0xB0CC, symBinAddr: 0x10000E9EC, symSize: 0x28 }
  - { offsetInCU: 0x2639E, offset: 0x2639E, size: 0x8, addend: 0x0, symName: __ZNKSt3__16chrono8durationIxNS_5ratioILl1ELl1000000000EEEE5countB8ue170006Ev, symObjAddr: 0xB160, symBinAddr: 0x10000EA80, symSize: 0x18 }
  - { offsetInCU: 0x263C4, offset: 0x263C4, size: 0x8, addend: 0x0, symName: __ZNSt3__16chrono8durationIxNS_5ratioILl1ELl1000000000EEEEC1B8ue170006IxNS2_ILl1ELl1EEEEERKNS1_IT_T0_EEPNS_9enable_ifIXaasr13__no_overflowIS8_S3_EE5valueooL_ZNS_17integral_constantIbLb0EE5valueEEaaeqsr13__no_overflowIS8_S3_E4typeE3denLi1Entsr23treat_as_floating_pointIS7_EE5valueEvE4typeE, symObjAddr: 0xB178, symBinAddr: 0x10000EA98, symSize: 0x3C }
  - { offsetInCU: 0x2641A, offset: 0x2641A, size: 0x8, addend: 0x0, symName: __ZNSt3__16chrono8durationIxNS_5ratioILl1ELl1000000000EEEEC2B8ue170006IxNS2_ILl1ELl1EEEEERKNS1_IT_T0_EEPNS_9enable_ifIXaasr13__no_overflowIS8_S3_EE5valueooL_ZNS_17integral_constantIbLb0EE5valueEEaaeqsr13__no_overflowIS8_S3_E4typeE3denLi1Entsr23treat_as_floating_pointIS7_EE5valueEvE4typeE, symObjAddr: 0xB1B4, symBinAddr: 0x10000EAD4, symSize: 0x50 }
  - { offsetInCU: 0x26470, offset: 0x26470, size: 0x8, addend: 0x0, symName: __ZNSt3__16chrono15duration_valuesIxE3maxB8ue170006Ev, symObjAddr: 0xB204, symBinAddr: 0x10000EB24, symSize: 0x14 }
  - { offsetInCU: 0x26484, offset: 0x26484, size: 0x8, addend: 0x0, symName: __ZNSt3__114numeric_limitsIxE3maxB8ue170006Ev, symObjAddr: 0xB218, symBinAddr: 0x10000EB38, symSize: 0x14 }
  - { offsetInCU: 0x26498, offset: 0x26498, size: 0x8, addend: 0x0, symName: __ZNSt3__123__libcpp_numeric_limitsIxLb1EE3maxB8ue170006Ev, symObjAddr: 0xB22C, symBinAddr: 0x10000EB4C, symSize: 0x8 }
  - { offsetInCU: 0x264AC, offset: 0x264AC, size: 0x8, addend: 0x0, symName: __ZNSt3__16chrono8durationIxNS_5ratioILl1ELl1EEEEC2B8ue170006IiEERKT_PNS_9enable_ifIXaasr14is_convertibleIS8_xEE5valueooL_ZNS_17integral_constantIbLb0EE5valueEEntsr23treat_as_floating_pointIS6_EE5valueEvE4typeE, symObjAddr: 0xB234, symBinAddr: 0x10000EB54, symSize: 0x28 }
  - { offsetInCU: 0x264F8, offset: 0x264F8, size: 0x8, addend: 0x0, symName: __ZN14MinesweeperGUID2Ev, symObjAddr: 0xB25C, symBinAddr: 0x10000EB7C, symSize: 0x50 }
  - { offsetInCU: 0x26524, offset: 0x26524, size: 0x8, addend: 0x0, symName: __ZN11MinesweeperD2Ev, symObjAddr: 0xB2AC, symBinAddr: 0x10000EBCC, symSize: 0x3C }
...
